
Module: virtual.asm
Group: 'DGROUP' _DATA

Segment: _TEXT  DWORD USE32  000068b1 bytes  
 0000  00 00             L1              add     [eax],al
 0002  00 00                             add     [eax],al
 0004  00 00                             add     [eax],al
 0006  00 00                             add     [eax],al
 0008  00 00                             add     [eax],al
 000a  00 00                             add     [eax],al
 000c  00 00                             add     [eax],al
 000e  00 00                             add     [eax],al
 0010  00 00                             add     [eax],al
 0012  00 00                             add     [eax],al
 0014  00 00                             add     [eax],al
 0016  00 00                             add     [eax],al
 0018  00 00             L2              add     [eax],al
 001a  00 00                             add     [eax],al
 001c  00 00             L3              add     [eax],al
 001e  00 00                             add     [eax],al
 0020  00 00                             add     [eax],al
 0022  00 00             L4              add     [eax],al
 0024  00 00                             add     [eax],al
 0026  00 00                             add     [eax],al
 0028  00 00                             add     [eax],al
 002a  00 00                             add     [eax],al
 002c  00 00                             add     [eax],al
 002e  00 00                             add     [eax],al
 0030  00 00                             add     [eax],al
 0032  81 fd 00 00 10 00 L5              cmp     ebp,00100000H
 0038  7c 06                             jl      L6
 003a  81 cd ff 0f 00 00                 or      ebp,00000fffH
 0040  66 b9 01 00       L6              mov     cx,0001H
 0044  66 33 c0                          xor     ax,ax
 0047  cd 31                             int     31H
 0049  72 21                             jb      L7
 004b  66 8b f0                          mov     si,ax
 004e  0f a4 d1 10                       shld    ecx,edx,10H
 0052  66 8b de                          mov     bx,si
 0055  66 b8 07 00                       mov     ax,0007H
 0059  cd 31                             int     31H
 005b  72 0f                             jb      L7
 005d  8b d5                             mov     edx,ebp
 005f  0f a4 d1 10                       shld    ecx,edx,10H
 0063  66 8b de                          mov     bx,si
 0066  66 b8 08 00                       mov     ax,0008H
 006a  cd 31                             int     31H
 006c  c3                L7              ret     
 006d  66 8b de                          mov     bx,si
 0070  66 b8 01 00                       mov     ax,0001H
 0074  cd 31                             int     31H
 0076  c3                                ret     
 0077  0f a4 cb 10       L8              shld    ebx,ecx,10H
 007b  66 b8 01 05                       mov     ax,0501H
 007f  cd 31                             int     31H
 0081  72 0d                             jb      L9
 0083  c1 e3 10                          shl     ebx,10H
 0086  66 8b d9                          mov     bx,cx
 0089  c1 e6 10                          shl     esi,10H
 008c  66 8b f7                          mov     si,di
 008f  f8                                clc     
 0090  c3                L9              ret     
 0091  0f a4 fe 10       L10             shld    esi,edi,10H
 0095  66 b8 02 05                       mov     ax,0502H
 0099  cd 31                             int     31H
 009b  c3                                ret     
 009c  66 ba da 03       L11             mov     dx,03daH
 00a0  ec                L12             in      al,dx
 00a1  24 08                             and     al,08H
 00a3  75 fb                             jne     L12
 00a5  ec                L13             in      al,dx
 00a6  24 08                             and     al,08H
 00a8  74 fb                             je      L13
 00aa  c3                                ret     
 00ab  66 ba c7 03                       mov     dx,03c7H
 00af  b0 00                             mov     al,00H
 00b1  ee                                out     dx,al
 00b2  66 83 c2 02                       add     dx,0002H
 00b6  b9 00 03 00 00                    mov     ecx,00000300H
 00bb  f3 6c                             repe    insb     
 00bd  c3                                ret     
 00be  e8 d9 ff ff ff                    call    L11
 00c3  66 ba c8 03                       mov     dx,03c8H
 00c7  b0 00                             mov     al,00H
 00c9  ee                                out     dx,al
 00ca  66 42                             inc     dx
 00cc  b9 00 03 00 00                    mov     ecx,00000300H
 00d1  f3 6e                             repe    outsb    
 00d3  c3                                ret     
 00d4  00 00             L14             add     [eax],al
 00d6  00 00             L15             add     [eax],al
 00d8  00 00                             add     [eax],al
 00da  66 b8 00 3d       L16             mov     ax,3d00H
 00de  cd 21                             int     21H
 00e0  72 71                             jb      L20
 00e2  66 a3 d4 00 00 00                 mov     L14,ax
 00e8  66 8b d8                          mov     bx,ax
 00eb  66 33 c9                          xor     cx,cx
 00ee  66 33 d2                          xor     dx,dx
 00f1  66 b8 02 42                       mov     ax,4202H
 00f5  cd 21                             int     21H
 00f7  c1 e2 10                          shl     edx,10H
 00fa  66 8b d0                          mov     dx,ax
 00fd  89 15 d6 00 00 00                 mov     L15,edx
 0103  66 33 c9                          xor     cx,cx
 0106  66 33 d2                          xor     dx,dx
 0109  66 b8 00 42                       mov     ax,4200H
 010d  cd 21                             int     21H
 010f  8b 0d d6 00 00 00                 mov     ecx,L15
 0115  e8 5d ff ff ff                    call    L8
 011a  72 37                             jb      L20
 011c  8b d3                             mov     edx,ebx
 011e  b9 00 20 00 00                    mov     ecx,00002000H
 0123  66 8b 1d d4 00 00 
       00                                mov     bx,L14
 012a  8b 2d d6 00 00 00                 mov     ebp,L15
 0130  2b e9             L17             sub     ebp,ecx
 0132  78 08                             js      L18
 0134  b4 3f                             mov     ah,3fH
 0136  cd 21                             int     21H
 0138  03 d1                             add     edx,ecx
 013a  eb f4                             jmp     L17
 013c  03 e9             L18             add     ebp,ecx
 013e  74 08                             je      L19
 0140  8b cd                             mov     ecx,ebp
 0142  b4 3f                             mov     ah,3fH
 0144  cd 21                             int     21H
 0146  03 d1                             add     edx,ecx
 0148  2b 15 d6 00 00 00 L19             sub     edx,L15
 014e  b4 3e                             mov     ah,3eH
 0150  cd 21                             int     21H
 0152  f8                                clc     
 0153  c3                L20             ret     
 0154  0d 0a 20 04 20    L21             or      eax,2004200aH
 0159  65 72 72                          jb      L30
 015c  6f                                outsd   
 015d  72 20                             jb      L23
 015f  69 6e 69 74 61 6c 
       69                                imul    ebp,+69H[esi],696c6174H
 0166  73 69                             jae     L32
 0168  6e                                outsb   
 0169  67 20 65 6e                       and     +6eH[di],ah
 016d  67 69 6e 65 20 21 
       0d 0a                             imul    ebp,+65H[bp],0a0d2120H
 0175  20 20                             and     [eax],ah
 0177  20 20                             and     [eax],ah
 0179  24 2d                             and     al,2dH
 017b  20 56 45                          and     +45H[esi],dl
 017e  53                                push    ebx
 017f  41                L23             inc     ecx
 0180  20 6e 6f                          and     +6fH[esi],ch
 0183  74 20                             je      L25
 0185  66 6f                             outsw   
 0187  75 6e                             jne     L37
 0189  64 07                             pop     es
 018b  24 2d                             and     al,2dH
 018d  20 43 61                          and     +61H[ebx],al
 0190  6e                                outsb   
 0191  27                                daa     
 0192  74 20                             je      L27
 0194  75 73                             jne     L40
 0196  65 20 33                          and     gs:[ebx],dh
 0199  32 30                             xor     dh,[eax]
 019b  78 32                             js      L31
 019d  30 30                             xor     [eax],dh
 019f  78 31                             js      L33
 01a1  36 62 70 70                       bound   esi,ss:+70H[eax]
 01a5  20 6d 6f          L25             and     +6fH[ebp],ch
 01a8  64 65 07                          pop     es
 01ab  24 2d                             and     al,2dH
 01ad  20 46 69                          and     +69H[esi],al
 01b0  6c                                insb    
 01b1  65 20 65 72                       and     gs:+72H[ebp],ah
 01b5  72 6f                             jb      L44
 01b7  72 07                             jb      L29
 01b9  24 2d                             and     al,2dH
 01bb  20 4e 6f                          and     +6fH[esi],cl
 01be  74 20                             je      L34
 01c0  65 6e             L29             outs    dx,byte ptr gs:[esi]
 01c2  6f                                outsd   
 01c3  75 67                             jne     L48
 01c5  68 20 6d 65 6d                    push    6d656d20H
 01ca  6f                                outsd   
 01cb  72 79                             jb      L57
 01cd  07                                pop     es
 01ce  24 2d             L30             and     al,2dH
 01d0  20 43 61                          and     +61H[ebx],al
 01d3  6e                                outsb   
 01d4  27                                daa     
 01d5  74 20                             je      L37
 01d7  61                                popad   
 01d8  6c                                insb    
 01d9  6c                                insb    
 01da  6f                                outsd   
 01db  63 61 74                          arpl    esp,+74H[ecx]
 01de  65 20 61 20                       and     gs:+20H[ecx],ah
 01e2  73 65                             jae     L58
 01e4  6c                                insb    
 01e5  65 63 74 6f 72                    arpl    esi,gs:+72H[edi+ebp*2]
 01ea  07                                pop     es
 01eb  24 74                             and     al,74H
 01ed  65 73 74                          jae     L66
 01f0  2e 77 6c                          ja      L64
 01f3  64 00 74 65 73                    add     fs:+73H[ebp],dh
 01f8  74 2e                             je      L46
 01fa  74 72                             je      L70
 01fc  73 00                             jae     L38
 01fe  74 65             L38             je      L67
 0200  73 74                             jae     L73
 0202  2e 63 61 6d                       arpl    esp,cs:+6dH[ecx]
 0206  00 74 65 73                       add     +73H[ebp],dh
 020a  74 2e                             je      L53
 020c  6c                                insb    
 020d  6e                                outsb   
 020e  75 00                             jne     L41
 0210  74 65             L41             je      L74
 0212  73 74                             jae     L80
 0214  2e 6c                             insb    
 0216  69 67 00 66 6c 61 
       72                                imul    esp,+0H[edi],72616c66H
 021d  65 2e 72 61                       jb      L78
 0221  77 00                             ja      L43
 0223  00 00             L43             add     [eax],al
 0225  00 00                             add     [eax],al
 0227  00 00             L45             add     [eax],al
 0229  00 00                             add     [eax],al
 022b  00 00             L47             add     [eax],al
 022d  00 00             L49             add     [eax],al
 022f  00 00                             add     [eax],al
 0231  00 00             L50             add     [eax],al
 0233  00 00                             add     [eax],al
 0235  00 00             L51             add     [eax],al
 0237  00 00                             add     [eax],al
 0239  00 00             L52             add     [eax],al
 023b  00 00                             add     [eax],al
 023d  00 00             L54             add     [eax],al
 023f  00 00                             add     [eax],al
 0241  00 00             L55             add     [eax],al
 0243  00 00                             add     [eax],al
 0245  00 00             L56             add     [eax],al
 0247  00 00                             add     [eax],al
 0249  00 00             L58             add     [eax],al
 024b  00 00                             add     [eax],al
 024d  00 00             L59             add     [eax],al
 024f  00 00                             add     [eax],al
 0251  00 00             L60             add     [eax],al
 0253  00 00                             add     [eax],al
 0255  00 00             L61             add     [eax],al
 0257  00 00                             add     [eax],al
 0259  00 00             L62             add     [eax],al
 025b  00 00                             add     [eax],al
 025d  00 00             L63             add     [eax],al
 025f  00 00             L64             add     [eax],al
 0261  00 00             L65             add     [eax],al
 0263  00 00                             add     [eax],al
 0265  00 00             L67             add     [eax],al
 0267  00 00                             add     [eax],al
 0269  00 00             L68             add     [eax],al
 026b  00 00                             add     [eax],al
 026d  00 00             L69             add     [eax],al
 026f  00 00                             add     [eax],al
 0271  00 00             L71             add     [eax],al
 0273  00 00                             add     [eax],al
 0275  00 00             L72             add     [eax],al
 0277  00 00             L74             add     [eax],al
 0279  00 00             L75             add     [eax],al
 027b  00 00                             add     [eax],al
 027d  00 00             L76             add     [eax],al
 027f  00 00                             add     [eax],al
 0281  00 00             L77             add     [eax],al
 0283  00 00                             add     [eax],al
 0285  00 00             L79             add     [eax],al
 0287  00 00                             add     [eax],al
 0289  00 00             L81             add     [eax],al
 028b  00 00                             add     [eax],al
 028d  00 00             L82             add     [eax],al
 028f  00 00                             add     [eax],al
 0291  00 00             L83             add     [eax],al
 0293  00 00                             add     [eax],al
 0295  00 00             L84             add     [eax],al
 0297  00 00                             add     [eax],al
 0299  00 00             L85             add     [eax],al
 029b  00 00                             add     [eax],al
 029d  00 00             L86             add     [eax],al
 029f  00 00                             add     [eax],al
 02a1  00 00             L87             add     [eax],al
 02a3  00 00                             add     [eax],al
 02a5  00 00             L88             add     [eax],al
 02a7  00 00                             add     [eax],al
 02a9  00 00             L89             add     [eax],al
 02ab  00 00                             add     [eax],al
 02ad  00 00             L90             add     [eax],al
 02af  00 00                             add     [eax],al
 02b1  00 00             L91             add     [eax],al
 02b3  00 00                             add     [eax],al
 02b5  00 00             L92             add     [eax],al
 02b7  00 00                             add     [eax],al
 02b9  00 00             L93             add     [eax],al
 02bb  00 00                             add     [eax],al
 02bd  00 00             L94             add     [eax],al
 02bf  00 00                             add     [eax],al
 02c1  00 00             L95             add     [eax],al
 02c3  00 00                             add     [eax],al
 02c5  01 00             L96             add     [eax],eax
 02c7  00 00                             add     [eax],al
 02c9  3f                L97             aas     
 02ca  01 00                             add     [eax],eax
 02cc  00 01                             add     [ecx],al
 02ce  00 00                             add     [eax],al
 02d0  00 c7                             add     bh,al
 02d2  00 00                             add     [eax],al
 02d4  00 00                             add     [eax],al
 02d6  00 20                             add     [eax],ah
 02d8  43                                inc     ebx
 02d9  00 00             L101            add     [eax],al
 02db  c8 42 00 00                       enter   0042H,00H
 02df  00 43 00                          add     +0H[ebx],al
 02e2  00 00                             add     [eax],al
 02e4  00 80 02 00 00 00                 add     +2H[eax],al
 02ea  05 00 00 80 07                    add     eax,07800000H
 02ef  00 00                             add     [eax],al
 02f1  00 0a                             add     [edx],cl
 02f3  00 00                             add     [eax],al
 02f5  80 0c 00 00                       or      byte ptr [eax+eax],00H
 02f9  00 0f                             add     [edi],cl
 02fb  00 00                             add     [eax],al
 02fd  80 11 00                          adc     byte ptr [ecx],00H
 0300  00 00                             add     [eax],al
 0302  14 00                             adc     al,00H
 0304  00 80 16 00 00 00                 add     +16H[eax],al
 030a  19 00                             sbb     [eax],eax
 030c  00 80 1b 00 00 00                 add     +1bH[eax],al
 0312  1e                                push    ds
 0313  00 00                             add     [eax],al
 0315  80 20 00                          and     byte ptr [eax],00H
 0318  00 00                             add     [eax],al
 031a  23 00                             and     eax,[eax]
 031c  00 80 25 00 00 00                 add     +25H[eax],al
 0322  28 00                             sub     [eax],al
 0324  00 80 2a 00 00 00                 add     +2aH[eax],al
 032a  2d 00 00 80 2f                    sub     eax,2f800000H
 032f  00 00                             add     [eax],al
 0331  00 32                             add     [edx],dh
 0333  00 00                             add     [eax],al
 0335  80 34 00 00                       xor     byte ptr [eax+eax],00H
 0339  00 37                             add     [edi],dh
 033b  00 00                             add     [eax],al
 033d  80 39 00                          cmp     byte ptr [ecx],00H
 0340  00 00                             add     [eax],al
 0342  3c 00                             cmp     al,00H
 0344  00 80 3e 00 00 00                 add     +3eH[eax],al
 034a  41                                inc     ecx
 034b  00 00                             add     [eax],al
 034d  80 43 00 00                       add     byte ptr +0H[ebx],00H
 0351  00 46 00                          add     +0H[esi],al
 0354  00 80 48 00 00 00                 add     +48H[eax],al
 035a  4b                                dec     ebx
 035b  00 00                             add     [eax],al
 035d  80 4d 00 00                       or      byte ptr +0H[ebp],00H
 0361  00 50 00                          add     +0H[eax],dl
 0364  00 80 52 00 00 00                 add     +52H[eax],al
 036a  55                                push    ebp
 036b  00 00                             add     [eax],al
 036d  80 57 00 00                       adc     byte ptr +0H[edi],00H
 0371  00 5a 00                          add     +0H[edx],bl
 0374  00 80 5c 00 00 00                 add     +5cH[eax],al
 037a  5f                                pop     edi
 037b  00 00                             add     [eax],al
 037d  80 61 00 00                       and     byte ptr +0H[ecx],00H
 0381  00 64 00 00                       add     +0H[eax+eax],ah
 0385  80 66 00 00                       and     byte ptr +0H[esi],00H
 0389  00 69 00                          add     +0H[ecx],ch
 038c  00 80 6b 00 00 00                 add     +6bH[eax],al
 0392  6e                                outsb   
 0393  00 00                             add     [eax],al
 0395  80 70 00 00                       xor     byte ptr +0H[eax],00H
 0399  00 73 00                          add     +0H[ebx],dh
 039c  00 80 75 00 00 00                 add     +75H[eax],al
 03a2  78 00                             js      L104
 03a4  00 80 7a 00 00 00 L104            add     +7aH[eax],al
 03aa  7d 00                             jge     L105
 03ac  00 80 7f 00 00 00 L105            add     +7fH[eax],al
 03b2  82 00 00                          add     byte ptr [eax],00H
 03b5  80 84 00 00 00 87 
       00 00                             add     byte ptr +870000H[eax+eax],00H
 03bd  80 89 00 00 00 8c 
       00                                or      byte ptr -74000000H[ecx],00H
 03c4  00 80 8e 00 00 00                 add     +8eH[eax],al
 03ca  91                                xchg    eax,ecx
 03cb  00 00                             add     [eax],al
 03cd  80 93 00 00 00 96 
       00                                adc     byte ptr -6a000000H[ebx],00H
 03d4  00 80 98 00 00 00                 add     +98H[eax],al
 03da  9b                                wait    
 03db  00 00                             add     [eax],al
 03dd  80 9d 00 00 00 a0 
       00                                sbb     byte ptr -60000000H[ebp],00H
 03e4  00 80 a2 00 00 00                 add     +0a2H[eax],al
 03ea  a5                                movsd   
 03eb  00 00                             add     [eax],al
 03ed  80 a7 00 00 00 aa 
       00                                and     byte ptr -56000000H[edi],00H
 03f4  00 80 ac 00 00 00                 add     +0acH[eax],al
 03fa  af                                scasd   
 03fb  00 00                             add     [eax],al
 03fd  80 b1 00 00 00 b4 
       00                                xor     byte ptr -4c000000H[ecx],00H
 0404  00 80 b6 00 00 00                 add     +0b6H[eax],al
 040a  b9 00 00 80 bb                    mov     ecx,0bb800000H
 040f  00 00                             add     [eax],al
 0411  00 be 00 00 80 c0                 add     -3f800000H[esi],bh
 0417  00 00                             add     [eax],al
 0419  00 c3                             add     bl,al
 041b  00 00                             add     [eax],al
 041d  80 c5 00                          add     ch,00H
 0420  00 00                             add     [eax],al
 0422  c8 00 00 80                       enter   0000H,80H
 0426  ca 00 00                          retf    0000H
 0429  00 cd                             add     ch,cl
 042b  00 00                             add     [eax],al
 042d  80 cf 00                          or      bh,00H
 0430  00 00                             add     [eax],al
 0432  d2 00                             rol     byte ptr [eax],cl
 0434  00 80 d4 00 00 00                 add     +0d4H[eax],al
 043a  d7                                xlat    
 043b  00 00                             add     [eax],al
 043d  80 d9 00                          sbb     cl,00H
 0440  00 00                             add     [eax],al
 0442  dc 00                             fadd    qword ptr [eax]
 0444  00 80 de 00 00 00                 add     +0deH[eax],al
 044a  e1 00                             loope   L106
 044c  00 80 e3 00 00 00 L106            add     +0e3H[eax],al
 0452  e6 00                             out     00H,al
 0454  00 80 e8 00 00 00                 add     +0e8H[eax],al
 045a  eb 00                             jmp     L107
 045c  00 80 ed 00 00 00 L107            add     +0edH[eax],al
 0462  f0 00 00                          lock    add      [eax],al
 0465  80 f2 00                          xor     dl,00H
 0468  00 00                             add     [eax],al
 046a  f5                                cmc     
 046b  00 00                             add     [eax],al
 046d  80 f7 00                          xor     bh,00H
 0470  00 00                             add     [eax],al
 0472  fa                                cli     
 0473  00 00                             add     [eax],al
 0475  80 fc 00                          cmp     ah,00H
 0478  00 00                             add     [eax],al
 047a  ff 00                             inc     dword ptr [eax]
 047c  00 80 01 01 00 00                 add     +101H[eax],al
 0482  04 01                             add     al,01H
 0484  00 80 06 01 00 00                 add     +106H[eax],al
 048a  09 01                             or      [ecx],eax
 048c  00 80 0b 01 00 00                 add     +10bH[eax],al
 0492  0e                                push    cs
 0493  01 00                             add     [eax],eax
 0495  80 10 01                          adc     byte ptr [eax],01H
 0498  00 00                             add     [eax],al
 049a  13 01                             adc     eax,[ecx]
 049c  00 80 15 01 00 00                 add     +115H[eax],al
 04a2  18 01                             sbb     [ecx],al
 04a4  00 80 1a 01 00 00                 add     +11aH[eax],al
 04aa  1d 01 00 80 1f                    sbb     eax,1f800001H
 04af  01 00                             add     [eax],eax
 04b1  00 22                             add     [edx],ah
 04b3  01 00                             add     [eax],eax
 04b5  80 24 01 00                       and     byte ptr [ecx+eax],00H
 04b9  00 27                             add     [edi],ah
 04bb  01 00                             add     [eax],eax
 04bd  80 29 01                          sub     byte ptr [ecx],01H
 04c0  00 00                             add     [eax],al
 04c2  2c 01                             sub     al,01H
 04c4  00 80 2e 01 00 00                 add     +12eH[eax],al
 04ca  31 01                             xor     [ecx],eax
 04cc  00 80 33 01 00 00                 add     +133H[eax],al
 04d2  36 01 00                          add     ss:[eax],eax
 04d5  80 38 01                          cmp     byte ptr [eax],01H
 04d8  00 00                             add     [eax],al
 04da  3b 01                             cmp     eax,[ecx]
 04dc  00 80 3d 01 00 00                 add     +13dH[eax],al
 04e2  40                                inc     eax
 04e3  01 00                             add     [eax],eax
 04e5  80 42 01 00                       add     byte ptr +1H[edx],00H
 04e9  00 45 01                          add     +1H[ebp],al
 04ec  00 80 47 01 00 00                 add     +147H[eax],al
 04f2  4a                                dec     edx
 04f3  01 00                             add     [eax],eax
 04f5  80 4c 01 00 00                    or      byte ptr +0H[ecx+eax],00H
 04fa  4f                                dec     edi
 04fb  01 00                             add     [eax],eax
 04fd  80 51 01 00                       adc     byte ptr +1H[ecx],00H
 0501  00 54 01 00                       add     +0H[ecx+eax],dl
 0505  80 56 01 00                       adc     byte ptr +1H[esi],00H
 0509  00 59 01                          add     +1H[ecx],bl
 050c  00 80 5b 01 00 00                 add     +15bH[eax],al
 0512  5e                                pop     esi
 0513  01 00                             add     [eax],eax
 0515  80 60 01 00                       and     byte ptr +1H[eax],00H
 0519  00 63 01                          add     +1H[ebx],ah
 051c  00 80 65 01 00 00                 add     +165H[eax],al
 0522  68 01 00 80 6a                    push    6a800001H
 0527  01 00                             add     [eax],eax
 0529  00 6d 01                          add     +1H[ebp],ch
 052c  00 80 6f 01 00 00                 add     +16fH[eax],al
 0532  72 01                             jb      L108
 0534  00 80 74 01 00 00                 add     +174H[eax],al
 053a  77 01                             ja      L109
 053c  00 80 79 01 00 00                 add     +179H[eax],al
 0542  7c 01                             jl      L110
 0544  00 80 7e 01 00 00                 add     +17eH[eax],al
 054a  81 01 00 80 83 01                 add     dword ptr [ecx],01838000H
 0550  00 00                             add     [eax],al
 0552  86 01                             xchg    al,[ecx]
 0554  00 80 88 01 00 00                 add     +188H[eax],al
 055a  8b 01                             mov     eax,[ecx]
 055c  00 80 8d 01 00 00                 add     +18dH[eax],al
 0562  90                                nop     
 0563  01 00                             add     [eax],eax
 0565  80 92 01 00 00 95 
       01                                adc     byte ptr -6affffffH[edx],01H
 056c  00 80 97 01 00 00                 add     +197H[eax],al
 0572  9a 01 00 80 9c 01 
       00                                call    far 0001H:9c800001H
 0579  00 9f 01 00 80 a1                 add     -5e7fffffH[edi],bl
 057f  01 00                             add     [eax],eax
 0581  00 a4 01 00 80 a6 
       01                                add     +1a68000H[ecx+eax],ah
 0588  00 00                             add     [eax],al
 058a  a9 01 00 80 ab                    test    eax,0ab800001H
 058f  01 00                             add     [eax],eax
 0591  00 ae 01 00 80 b0                 add     -4f7fffffH[esi],ch
 0597  01 00                             add     [eax],eax
 0599  00 b3 01 00 80 b5                 add     -4a7fffffH[ebx],dh
 059f  01 00                             add     [eax],eax
 05a1  00 b8 01 00 80 ba                 add     -457fffffH[eax],bh
 05a7  01 00                             add     [eax],eax
 05a9  00 bd 01 00 80 bf                 add     -407fffffH[ebp],bh
 05af  01 00                             add     [eax],eax
 05b1  00 c2                             add     dl,al
 05b3  01 00                             add     [eax],eax
 05b5  80 c4 01                          add     ah,01H
 05b8  00 00                             add     [eax],al
 05ba  c7 01 00 80 c9 01                 mov     dword ptr [ecx],01c98000H
 05c0  00 00                             add     [eax],al
 05c2  cc                                int     3
 05c3  01 00                             add     [eax],eax
 05c5  80 ce 01                          or      dh,01H
 05c8  00 00                             add     [eax],al
 05ca  d1 01                             rol     dword ptr [ecx],1
 05cc  00 80 d3 01 00 00                 add     +1d3H[eax],al
 05d2  d6                                ?????
 05d3  01 00                             add     [eax],eax
 05d5  80 d8 01                          sbb     al,01H
 05d8  00 00                             add     [eax],al
 05da  db 01                             fild    dword ptr [ecx]
 05dc  00 80 dd 01 00 00                 add     +1ddH[eax],al
 05e2  e0 01                             loopne  L111
 05e4  00 80 e2 01 00 00                 add     +1e2H[eax],al
 05ea  e5 01                             in      eax,01H
 05ec  00 80 e7 01 00 00                 add     +1e7H[eax],al
 05f2  ea 01 00 80 ec 01 
       00                                jmp     far 0001H:0ec800001H
 05f9  00 ef                             add     bh,ch
 05fb  01 00                             add     [eax],eax
 05fd  80 f1 01                          xor     cl,01H
 0600  00 00                             add     [eax],al
 0602  00 00                             add     [eax],al
 0604  00 00                             add     [eax],al
 0606  02 00                             add     al,[eax]
 0608  00 00                             add     [eax],al
 060a  04 00                             add     al,00H
 060c  00 00                             add     [eax],al
 060e  06                                push    es
 060f  00 00                             add     [eax],al
 0611  00 08                             add     [eax],cl
 0613  00 00                             add     [eax],al
 0615  00 0a                             add     [edx],cl
 0617  00 00                             add     [eax],al
 0619  00 0c 00                          add     [eax+eax],cl
 061c  00 00                             add     [eax],al
 061e  0e                                push    cs
 061f  00 00                             add     [eax],al
 0621  00 10                             add     [eax],dl
 0623  00 00                             add     [eax],al
 0625  00 12                             add     [edx],dl
 0627  00 00                             add     [eax],al
 0629  00 14 00                          add     [eax+eax],dl
 062c  00 00                             add     [eax],al
 062e  16                                push    ss
 062f  00 00                             add     [eax],al
 0631  00 18                             add     [eax],bl
 0633  00 00                             add     [eax],al
 0635  00 1a                             add     [edx],bl
 0637  00 00                             add     [eax],al
 0639  00 1c 00                          add     [eax+eax],bl
 063c  00 00                             add     [eax],al
 063e  1e                                push    ds
 063f  00 00                             add     [eax],al
 0641  00 20                             add     [eax],ah
 0643  00 00                             add     [eax],al
 0645  00 22                             add     [edx],ah
 0647  00 00                             add     [eax],al
 0649  00 24 00                          add     [eax+eax],ah
 064c  00 00                             add     [eax],al
 064e  26 00 00                          add     es:[eax],al
 0651  00 28                             add     [eax],ch
 0653  00 00                             add     [eax],al
 0655  00 2a                             add     [edx],ch
 0657  00 00                             add     [eax],al
 0659  00 2c 00                          add     [eax+eax],ch
 065c  00 00                             add     [eax],al
 065e  2e 00 00                          add     cs:[eax],al
 0661  00 30                             add     [eax],dh
 0663  00 00                             add     [eax],al
 0665  00 32                             add     [edx],dh
 0667  00 00                             add     [eax],al
 0669  00 34 00                          add     [eax+eax],dh
 066c  00 00                             add     [eax],al
 066e  36 00 00                          add     ss:[eax],al
 0671  00 38                             add     [eax],bh
 0673  00 00                             add     [eax],al
 0675  00 3a                             add     [edx],bh
 0677  00 00                             add     [eax],al
 0679  00 3c 00                          add     [eax+eax],bh
 067c  00 00                             add     [eax],al
 067e  3e 00 00                          add     ds:[eax],al
 0681  00 40 00                          add     +0H[eax],al
 0684  00 00                             add     [eax],al
 0686  42                                inc     edx
 0687  00 00                             add     [eax],al
 0689  00 44 00 00                       add     +0H[eax+eax],al
 068d  00 46 00                          add     +0H[esi],al
 0690  00 00                             add     [eax],al
 0692  48                                dec     eax
 0693  00 00                             add     [eax],al
 0695  00 4a 00                          add     +0H[edx],cl
 0698  00 00                             add     [eax],al
 069a  4c                                dec     esp
 069b  00 00                             add     [eax],al
 069d  00 4e 00                          add     +0H[esi],cl
 06a0  00 00                             add     [eax],al
 06a2  50                                push    eax
 06a3  00 00                             add     [eax],al
 06a5  00 52 00                          add     +0H[edx],dl
 06a8  00 00                             add     [eax],al
 06aa  54                                push    esp
 06ab  00 00                             add     [eax],al
 06ad  00 56 00                          add     +0H[esi],dl
 06b0  00 00                             add     [eax],al
 06b2  58                                pop     eax
 06b3  00 00                             add     [eax],al
 06b5  00 5a 00                          add     +0H[edx],bl
 06b8  00 00                             add     [eax],al
 06ba  5c                                pop     esp
 06bb  00 00                             add     [eax],al
 06bd  00 5e 00                          add     +0H[esi],bl
 06c0  00 00                             add     [eax],al
 06c2  60                                pushad  
 06c3  00 00                             add     [eax],al
 06c5  00 62 00                          add     +0H[edx],ah
 06c8  00 00                             add     [eax],al
 06ca  64 00 00                          add     fs:[eax],al
 06cd  00 66 00                          add     +0H[esi],ah
 06d0  00 00                             add     [eax],al
 06d2  68 00 00 00 6a                    push    6a000000H
 06d7  00 00                             add     [eax],al
 06d9  00 6c 00 00                       add     +0H[eax+eax],ch
 06dd  00 6e 00                          add     +0H[esi],ch
 06e0  00 00                             add     [eax],al
 06e2  70 00                             jo      L113
 06e4  00 00             L113            add     [eax],al
 06e6  72 00                             jb      L114
 06e8  00 00             L114            add     [eax],al
 06ea  74 00                             je      L115
 06ec  00 00             L115            add     [eax],al
 06ee  76 00                             jbe     L116
 06f0  00 00             L116            add     [eax],al
 06f2  78 00                             js      L117
 06f4  00 00             L117            add     [eax],al
 06f6  7a 00                             jp      L118
 06f8  00 00             L118            add     [eax],al
 06fa  7c 00                             jl      L119
 06fc  00 00             L119            add     [eax],al
 06fe  7e 00                             jle     L120
 0700  00 00             L120            add     [eax],al
 0702  80 00 00                          add     byte ptr [eax],00H
 0705  00 82 00 00 00 84                 add     -7c000000H[edx],al
 070b  00 00                             add     [eax],al
 070d  00 86 00 00 00 88                 add     -78000000H[esi],al
 0713  00 00                             add     [eax],al
 0715  00 8a 00 00 00 8c                 add     -74000000H[edx],cl
 071b  00 00                             add     [eax],al
 071d  00 8e 00 00 00 90                 add     -70000000H[esi],cl
 0723  00 00                             add     [eax],al
 0725  00 92 00 00 00 94                 add     -6c000000H[edx],dl
 072b  00 00                             add     [eax],al
 072d  00 96 00 00 00 98                 add     -68000000H[esi],dl
 0733  00 00                             add     [eax],al
 0735  00 9a 00 00 00 9c                 add     -64000000H[edx],bl
 073b  00 00                             add     [eax],al
 073d  00 9e 00 00 00 a0                 add     -60000000H[esi],bl
 0743  00 00                             add     [eax],al
 0745  00 a2 00 00 00 a4                 add     -5c000000H[edx],ah
 074b  00 00                             add     [eax],al
 074d  00 a6 00 00 00 a8                 add     -58000000H[esi],ah
 0753  00 00                             add     [eax],al
 0755  00 aa 00 00 00 ac                 add     -54000000H[edx],ch
 075b  00 00                             add     [eax],al
 075d  00 ae 00 00 00 b0                 add     -50000000H[esi],ch
 0763  00 00                             add     [eax],al
 0765  00 b2 00 00 00 b4                 add     -4c000000H[edx],dh
 076b  00 00                             add     [eax],al
 076d  00 b6 00 00 00 b8                 add     -48000000H[esi],dh
 0773  00 00                             add     [eax],al
 0775  00 ba 00 00 00 bc                 add     -44000000H[edx],bh
 077b  00 00                             add     [eax],al
 077d  00 be 00 00 00 c0                 add     -40000000H[esi],bh
 0783  00 00                             add     [eax],al
 0785  00 c2                             add     dl,al
 0787  00 00                             add     [eax],al
 0789  00 c4                             add     ah,al
 078b  00 00                             add     [eax],al
 078d  00 c6                             add     dh,al
 078f  00 00                             add     [eax],al
 0791  00 c8                             add     al,cl
 0793  00 00                             add     [eax],al
 0795  00 ca                             add     dl,cl
 0797  00 00                             add     [eax],al
 0799  00 cc                             add     ah,cl
 079b  00 00                             add     [eax],al
 079d  00 ce                             add     dh,cl
 079f  00 00                             add     [eax],al
 07a1  00 d0                             add     al,dl
 07a3  00 00                             add     [eax],al
 07a5  00 d2                             add     dl,dl
 07a7  00 00                             add     [eax],al
 07a9  00 d4                             add     ah,dl
 07ab  00 00                             add     [eax],al
 07ad  00 d6                             add     dh,dl
 07af  00 00                             add     [eax],al
 07b1  00 d8                             add     al,bl
 07b3  00 00                             add     [eax],al
 07b5  00 da                             add     dl,bl
 07b7  00 00                             add     [eax],al
 07b9  00 dc                             add     ah,bl
 07bb  00 00                             add     [eax],al
 07bd  00 de                             add     dh,bl
 07bf  00 00                             add     [eax],al
 07c1  00 e0                             add     al,ah
 07c3  00 00                             add     [eax],al
 07c5  00 e2                             add     dl,ah
 07c7  00 00                             add     [eax],al
 07c9  00 e4                             add     ah,ah
 07cb  00 00                             add     [eax],al
 07cd  00 e6                             add     dh,ah
 07cf  00 00                             add     [eax],al
 07d1  00 e8                             add     al,ch
 07d3  00 00                             add     [eax],al
 07d5  00 ea                             add     dl,ch
 07d7  00 00                             add     [eax],al
 07d9  00 ec                             add     ah,ch
 07db  00 00                             add     [eax],al
 07dd  00 ee                             add     dh,ch
 07df  00 00                             add     [eax],al
 07e1  00 f0                             add     al,dh
 07e3  00 00                             add     [eax],al
 07e5  00 f2                             add     dl,dh
 07e7  00 00                             add     [eax],al
 07e9  00 f4                             add     ah,dh
 07eb  00 00                             add     [eax],al
 07ed  00 f6                             add     dh,dh
 07ef  00 00                             add     [eax],al
 07f1  00 f8                             add     al,bh
 07f3  00 00                             add     [eax],al
 07f5  00 fa                             add     dl,bh
 07f7  00 00                             add     [eax],al
 07f9  00 fc                             add     ah,bh
 07fb  00 00                             add     [eax],al
 07fd  00 fe                             add     dh,bh
 07ff  00 00                             add     [eax],al
 0801  00 00                             add     [eax],al
 0803  01 00                             add     [eax],eax
 0805  00 02                             add     [edx],al
 0807  01 00                             add     [eax],eax
 0809  00 04 01                          add     [ecx+eax],al
 080c  00 00                             add     [eax],al
 080e  06                                push    es
 080f  01 00                             add     [eax],eax
 0811  00 08                             add     [eax],cl
 0813  01 00                             add     [eax],eax
 0815  00 0a                             add     [edx],cl
 0817  01 00                             add     [eax],eax
 0819  00 0c 01                          add     [ecx+eax],cl
 081c  00 00                             add     [eax],al
 081e  0e                                push    cs
 081f  01 00                             add     [eax],eax
 0821  00 10                             add     [eax],dl
 0823  01 00                             add     [eax],eax
 0825  00 12                             add     [edx],dl
 0827  01 00                             add     [eax],eax
 0829  00 14 01                          add     [ecx+eax],dl
 082c  00 00                             add     [eax],al
 082e  16                                push    ss
 082f  01 00                             add     [eax],eax
 0831  00 18                             add     [eax],bl
 0833  01 00                             add     [eax],eax
 0835  00 1a                             add     [edx],bl
 0837  01 00                             add     [eax],eax
 0839  00 1c 01                          add     [ecx+eax],bl
 083c  00 00                             add     [eax],al
 083e  1e                                push    ds
 083f  01 00                             add     [eax],eax
 0841  00 20                             add     [eax],ah
 0843  01 00                             add     [eax],eax
 0845  00 22                             add     [edx],ah
 0847  01 00                             add     [eax],eax
 0849  00 24 01                          add     [ecx+eax],ah
 084c  00 00                             add     [eax],al
 084e  26 01 00                          add     es:[eax],eax
 0851  00 28                             add     [eax],ch
 0853  01 00                             add     [eax],eax
 0855  00 2a                             add     [edx],ch
 0857  01 00                             add     [eax],eax
 0859  00 2c 01                          add     [ecx+eax],ch
 085c  00 00                             add     [eax],al
 085e  2e 01 00                          add     cs:[eax],eax
 0861  00 30                             add     [eax],dh
 0863  01 00                             add     [eax],eax
 0865  00 32                             add     [edx],dh
 0867  01 00                             add     [eax],eax
 0869  00 34 01                          add     [ecx+eax],dh
 086c  00 00                             add     [eax],al
 086e  36 01 00                          add     ss:[eax],eax
 0871  00 38                             add     [eax],bh
 0873  01 00                             add     [eax],eax
 0875  00 3a                             add     [edx],bh
 0877  01 00                             add     [eax],eax
 0879  00 3c 01                          add     [ecx+eax],bh
 087c  00 00                             add     [eax],al
 087e  3e 01 00                          add     ds:[eax],eax
 0881  00 40 01                          add     +1H[eax],al
 0884  00 00                             add     [eax],al
 0886  42                                inc     edx
 0887  01 00                             add     [eax],eax
 0889  00 44 01 00                       add     +0H[ecx+eax],al
 088d  00 46 01                          add     +1H[esi],al
 0890  00 00                             add     [eax],al
 0892  48                                dec     eax
 0893  01 00                             add     [eax],eax
 0895  00 4a 01                          add     +1H[edx],cl
 0898  00 00                             add     [eax],al
 089a  4c                                dec     esp
 089b  01 00                             add     [eax],eax
 089d  00 4e 01                          add     +1H[esi],cl
 08a0  00 00                             add     [eax],al
 08a2  50                                push    eax
 08a3  01 00                             add     [eax],eax
 08a5  00 52 01                          add     +1H[edx],dl
 08a8  00 00                             add     [eax],al
 08aa  54                                push    esp
 08ab  01 00                             add     [eax],eax
 08ad  00 56 01                          add     +1H[esi],dl
 08b0  00 00                             add     [eax],al
 08b2  58                                pop     eax
 08b3  01 00                             add     [eax],eax
 08b5  00 5a 01                          add     +1H[edx],bl
 08b8  00 00                             add     [eax],al
 08ba  5c                                pop     esp
 08bb  01 00                             add     [eax],eax
 08bd  00 5e 01                          add     +1H[esi],bl
 08c0  00 00                             add     [eax],al
 08c2  60                                pushad  
 08c3  01 00                             add     [eax],eax
 08c5  00 62 01                          add     +1H[edx],ah
 08c8  00 00                             add     [eax],al
 08ca  64 01 00                          add     fs:[eax],eax
 08cd  00 66 01                          add     +1H[esi],ah
 08d0  00 00                             add     [eax],al
 08d2  68 01 00 00 6a                    push    6a000001H
 08d7  01 00                             add     [eax],eax
 08d9  00 6c 01 00                       add     +0H[ecx+eax],ch
 08dd  00 6e 01                          add     +1H[esi],ch
 08e0  00 00                             add     [eax],al
 08e2  70 01                             jo      L121
 08e4  00 00                             add     [eax],al
 08e6  72 01                             jb      L122
 08e8  00 00                             add     [eax],al
 08ea  74 01                             je      L123
 08ec  00 00                             add     [eax],al
 08ee  76 01                             jbe     L124
 08f0  00 00                             add     [eax],al
 08f2  78 01                             js      L125
 08f4  00 00                             add     [eax],al
 08f6  7a 01                             jp      L126
 08f8  00 00                             add     [eax],al
 08fa  7c 01                             jl      L127
 08fc  00 00                             add     [eax],al
 08fe  7e 01                             jle     L128
 0900  00 00                             add     [eax],al
 0902  80 01 00                          add     byte ptr [ecx],00H
 0905  00 82 01 00 00 84                 add     -7bffffffH[edx],al
 090b  01 00                             add     [eax],eax
 090d  00 86 01 00 00 88                 add     -77ffffffH[esi],al
 0913  01 00                             add     [eax],eax
 0915  00 8a 01 00 00 8c                 add     -73ffffffH[edx],cl
 091b  01 00                             add     [eax],eax
 091d  00 8e 01 00 00 90                 add     -6fffffffH[esi],cl
 0923  01 00                             add     [eax],eax
 0925  00 92 01 00 00 94                 add     -6bffffffH[edx],dl
 092b  01 00                             add     [eax],eax
 092d  00 96 01 00 00 98                 add     -67ffffffH[esi],dl
 0933  01 00                             add     [eax],eax
 0935  00 9a 01 00 00 9c                 add     -63ffffffH[edx],bl
 093b  01 00                             add     [eax],eax
 093d  00 9e 01 00 00 a0                 add     -5fffffffH[esi],bl
 0943  01 00                             add     [eax],eax
 0945  00 a2 01 00 00 a4                 add     -5bffffffH[edx],ah
 094b  01 00                             add     [eax],eax
 094d  00 a6 01 00 00 a8                 add     -57ffffffH[esi],ah
 0953  01 00                             add     [eax],eax
 0955  00 aa 01 00 00 ac                 add     -53ffffffH[edx],ch
 095b  01 00                             add     [eax],eax
 095d  00 ae 01 00 00 b0                 add     -4fffffffH[esi],ch
 0963  01 00                             add     [eax],eax
 0965  00 b2 01 00 00 b4                 add     -4bffffffH[edx],dh
 096b  01 00                             add     [eax],eax
 096d  00 b6 01 00 00 b8                 add     -47ffffffH[esi],dh
 0973  01 00                             add     [eax],eax
 0975  00 ba 01 00 00 bc                 add     -43ffffffH[edx],bh
 097b  01 00                             add     [eax],eax
 097d  00 be 01 00 00 c0                 add     -3fffffffH[esi],bh
 0983  01 00                             add     [eax],eax
 0985  00 c2                             add     dl,al
 0987  01 00                             add     [eax],eax
 0989  00 c4                             add     ah,al
 098b  01 00                             add     [eax],eax
 098d  00 c6                             add     dh,al
 098f  01 00                             add     [eax],eax
 0991  00 c8                             add     al,cl
 0993  01 00                             add     [eax],eax
 0995  00 ca                             add     dl,cl
 0997  01 00                             add     [eax],eax
 0999  00 cc                             add     ah,cl
 099b  01 00                             add     [eax],eax
 099d  00 ce                             add     dh,cl
 099f  01 00                             add     [eax],eax
 09a1  00 d0                             add     al,dl
 09a3  01 00                             add     [eax],eax
 09a5  00 d2                             add     dl,dl
 09a7  01 00                             add     [eax],eax
 09a9  00 d4                             add     ah,dl
 09ab  01 00                             add     [eax],eax
 09ad  00 d6                             add     dh,dl
 09af  01 00                             add     [eax],eax
 09b1  00 d8                             add     al,bl
 09b3  01 00                             add     [eax],eax
 09b5  00 da                             add     dl,bl
 09b7  01 00                             add     [eax],eax
 09b9  00 dc                             add     ah,bl
 09bb  01 00                             add     [eax],eax
 09bd  00 de                             add     dh,bl
 09bf  01 00                             add     [eax],eax
 09c1  00 e0                             add     al,ah
 09c3  01 00                             add     [eax],eax
 09c5  00 e2                             add     dl,ah
 09c7  01 00                             add     [eax],eax
 09c9  00 e4                             add     ah,ah
 09cb  01 00                             add     [eax],eax
 09cd  00 e6                             add     dh,ah
 09cf  01 00                             add     [eax],eax
 09d1  00 e8                             add     al,ch
 09d3  01 00                             add     [eax],eax
 09d5  00 ea                             add     dl,ch
 09d7  01 00                             add     [eax],eax
 09d9  00 ec                             add     ah,ch
 09db  01 00                             add     [eax],eax
 09dd  00 ee                             add     dh,ch
 09df  01 00                             add     [eax],eax
 09e1  00 f0                             add     al,dh
 09e3  01 00                             add     [eax],eax
 09e5  00 f2                             add     dl,dh
 09e7  01 00                             add     [eax],eax
 09e9  00 f4                             add     ah,dh
 09eb  01 00                             add     [eax],eax
 09ed  00 f6                             add     dh,dh
 09ef  01 00                             add     [eax],eax
 09f1  00 f8                             add     al,bh
 09f3  01 00                             add     [eax],eax
 09f5  00 fa                             add     dl,bh
 09f7  01 00                             add     [eax],eax
 09f9  00 fc                             add     ah,bh
 09fb  01 00                             add     [eax],eax
 09fd  00 fe                             add     dh,bh
 09ff  01 00                             add     [eax],eax
 0a01  60                _virt_init      pushad  
 0a02  fc                                cld     
 0a03  1e                                push    ds
 0a04  07                                pop     es
 0a05  e8 d3 02 00 00                    call    L142
 0a0a  0f 82 94 01 00 00                 jb      L133
 0a10  e8 69 03 00 00                    call    L143
 0a15  0f 82 89 01 00 00                 jb      L133
 0a1b  e8 f2 03 00 00                    call    L145
 0a20  0f 82 7e 01 00 00                 jb      L133
 0a26  e8 86 04 00 00                    call    L146
 0a2b  0f 82 73 01 00 00                 jb      L133
 0a31  e8 0e 05 00 00                    call    L149
 0a36  0f 82 68 01 00 00                 jb      L133
 0a3c  e8 48 59 00 00                    call    L449
 0a41  66 b8 02 4f                       mov     ax,4f02H
 0a45  66 bb 0e 01                       mov     bx,010eH
 0a49  cd 10                             int     10H
 0a4b  61                                popad   
 0a4c  c3                                ret     
 0a4d  60                _calc_virt      pushad  
 0a4e  e8 20 00 00 00                    call    L129
 0a53  e8 0a 07 00 00                    call    L156
 0a58  e8 a6 00 00 00                    call    L131
 0a5d  e8 00 07 00 00                    call    L156
 0a62  e8 35 f6 ff ff                    call    L11
 0a67  e8 a9 06 00 00                    call    L154
 0a6c  e8 22 5e 00 00                    call    L485
 0a71  61                                popad   
 0a72  c3                                ret     
 0a73  a1 35 02 00 00    L129            mov     eax,L51
 0a78  a3 bd 02 00 00                    mov     L94,eax
 0a7d  a1 49 02 00 00                    mov     eax,L58
 0a82  a3 c1 02 00 00                    mov     L95,eax
 0a87  c7 05 2d 02 00 00 
       01 06 00 00                       mov     dword ptr L49,offset L112
 0a91  a1 27 02 00 00                    mov     eax,L45
 0a96  a3 31 02 00 00                    mov     L50,eax
 0a9b  c7 05 c5 02 00 00 
       01 00 00 00                       mov     dword ptr L96,00000001H
 0aa5  c7 05 c9 02 00 00 
       ff 00 00 00                       mov     dword ptr L97,000000ffH
 0aaf  c7 05 cd 02 00 00 
       01 00 00 00                       mov     dword ptr L98,00000001H
 0ab9  c7 05 d1 02 00 00 
       ff 00 00 00                       mov     dword ptr L99,000000ffH
 0ac3  d9 05 dd 02 00 00                 fld     dword ptr L102
 0ac9  d9 1d 91 18 00 00                 fstp    dword ptr L226
 0acf  d9 05 dd 02 00 00                 fld     dword ptr L102
 0ad5  d9 1d 95 18 00 00                 fstp    dword ptr L227
 0adb  e8 b5 06 00 00                    call    L165
 0ae0  e8 05 09 00 00                    call    L170
 0ae5  e8 33 0b 00 00                    call    L200
 0aea  e8 d7 09 00 00                    call    L176
 0aef  83 3d b6 14 00 00 
       00                                cmp     dword ptr L172,00000000H
 0af6  74 05                             je      L130
 0af8  e8 58 0c 00 00                    call    L214
 0afd  e8 38 5a 00 00    L130            call    L464
 0b02  c3                                ret     
 0b03  a1 35 02 00 00    L131            mov     eax,L51
 0b08  a3 bd 02 00 00                    mov     L94,eax
 0b0d  a1 49 02 00 00                    mov     eax,L58
 0b12  83 c0 30                          add     eax,00000030H
 0b15  a3 c1 02 00 00                    mov     L95,eax
 0b1a  c7 05 2d 02 00 00 
       e1 02 00 00                       mov     dword ptr L49,offset L103
 0b24  a1 3d 02 00 00                    mov     eax,L54
 0b29  a3 31 02 00 00                    mov     L50,eax
 0b2e  c7 05 c5 02 00 00 
       01 00 00 00                       mov     dword ptr L96,00000001H
 0b38  c7 05 c9 02 00 00 
       3f 01 00 00                       mov     dword ptr L97,0000013fH
 0b42  c7 05 cd 02 00 00 
       01 00 00 00                       mov     dword ptr L98,00000001H
 0b4c  c7 05 d1 02 00 00 
       c7 00 00 00                       mov     dword ptr L99,000000c7H
 0b56  d9 05 d5 02 00 00                 fld     dword ptr L100
 0b5c  d9 1d 91 18 00 00                 fstp    dword ptr L226
 0b62  d9 05 d9 02 00 00                 fld     dword ptr L101
 0b68  d9 1d 95 18 00 00                 fstp    dword ptr L227
 0b6e  e8 22 06 00 00                    call    L165
 0b73  e8 72 08 00 00                    call    L170
 0b78  e8 a0 0a 00 00                    call    L200
 0b7d  e8 44 09 00 00                    call    L176
 0b82  83 3d b6 14 00 00 
       00                                cmp     dword ptr L172,00000000H
 0b89  74 05                             je      L132
 0b8b  e8 c5 0b 00 00                    call    L214
 0b90  e8 a5 59 00 00    L132            call    L464
 0b95  c3                                ret     
 0b96  60                _virt_finish    pushad  
 0b97  66 b8 03 00                       mov     ax,0003H
 0b9b  cd 10                             int     10H
 0b9d  e8 e7 04 00 00                    call    L152
 0ba2  61                                popad   
 0ba3  c3                                ret     
 0ba4  ba 54 01 00 00    L133            mov     edx,offset L21
 0ba9  b4 09                             mov     ah,09H
 0bab  cd 21                             int     21H
 0bad  8b d5                             mov     edx,ebp
 0baf  b4 09                             mov     ah,09H
 0bb1  cd 21                             int     21H
 0bb3  66 b8 00 4c                       mov     ax,4c00H
 0bb7  cd 21                             int     21H
 0bb9  bd 7a 01 00 00    L134            mov     ebp,offset L22
 0bbe  f9                                stc     
 0bbf  c3                                ret     
 0bc0  bd 8c 01 00 00    L135            mov     ebp,offset L24
 0bc5  f9                                stc     
 0bc6  c3                                ret     
 0bc7  bd ac 01 00 00    L136            mov     ebp,offset L26
 0bcc  c3                                ret     
 0bcd  bd ba 01 00 00    L137            mov     ebp,offset L28
 0bd2  c3                                ret     
 0bd3  bd cf 01 00 00    L138            mov     ebp,offset L31
 0bd8  c3                                ret     
 0bd9  00 00             L139            add     [eax],al
 0bdb  00 00                             add     [eax],al
 0bdd  00 00             L140            add     [eax],al
 0bdf  00 00                             add     [eax],al
 0be1  00 00                             add     [eax],al
 0be3  00 00                             add     [eax],al
 0be5  00 00                             add     [eax],al
 0be7  00 00                             add     [eax],al
 0be9  00 00                             add     [eax],al
 0beb  00 00                             add     [eax],al
 0bed  00 00                             add     [eax],al
 0bef  00 00                             add     [eax],al
 0bf1  00 00                             add     [eax],al
 0bf3  00 00                             add     [eax],al
 0bf5  00 00                             add     [eax],al
 0bf7  00 00                             add     [eax],al
 0bf9  00 00                             add     [eax],al
 0bfb  00 00                             add     [eax],al
 0bfd  00 00                             add     [eax],al
 0bff  00 00                             add     [eax],al
 0c01  00 00                             add     [eax],al
 0c03  00 00                             add     [eax],al
 0c05  00 00                             add     [eax],al
 0c07  00 00                             add     [eax],al
 0c09  00 00                             add     [eax],al
 0c0b  00 00                             add     [eax],al
 0c0d  00 00                             add     [eax],al
 0c0f  00 00                             add     [eax],al
 0c11  00 00                             add     [eax],al
 0c13  00 00                             add     [eax],al
 0c15  00 00                             add     [eax],al
 0c17  00 00                             add     [eax],al
 0c19  00 00                             add     [eax],al
 0c1b  00 00                             add     [eax],al
 0c1d  00 00                             add     [eax],al
 0c1f  00 00                             add     [eax],al
 0c21  00 00                             add     [eax],al
 0c23  00 00                             add     [eax],al
 0c25  00 00                             add     [eax],al
 0c27  00 00                             add     [eax],al
 0c29  00 00                             add     [eax],al
 0c2b  00 00                             add     [eax],al
 0c2d  00 00                             add     [eax],al
 0c2f  00 00                             add     [eax],al
 0c31  00 00                             add     [eax],al
 0c33  00 00                             add     [eax],al
 0c35  00 00                             add     [eax],al
 0c37  00 00                             add     [eax],al
 0c39  00 00                             add     [eax],al
 0c3b  00 00                             add     [eax],al
 0c3d  00 00                             add     [eax],al
 0c3f  00 00                             add     [eax],al
 0c41  00 00                             add     [eax],al
 0c43  00 00                             add     [eax],al
 0c45  00 00                             add     [eax],al
 0c47  00 00                             add     [eax],al
 0c49  00 00                             add     [eax],al
 0c4b  00 00                             add     [eax],al
 0c4d  00 00                             add     [eax],al
 0c4f  00 00                             add     [eax],al
 0c51  00 00                             add     [eax],al
 0c53  00 00                             add     [eax],al
 0c55  00 00                             add     [eax],al
 0c57  00 00                             add     [eax],al
 0c59  00 00                             add     [eax],al
 0c5b  00 00                             add     [eax],al
 0c5d  00 00                             add     [eax],al
 0c5f  00 00                             add     [eax],al
 0c61  00 00                             add     [eax],al
 0c63  00 00                             add     [eax],al
 0c65  00 00                             add     [eax],al
 0c67  00 00                             add     [eax],al
 0c69  00 00                             add     [eax],al
 0c6b  00 00                             add     [eax],al
 0c6d  00 00                             add     [eax],al
 0c6f  00 00                             add     [eax],al
 0c71  00 00                             add     [eax],al
 0c73  00 00                             add     [eax],al
 0c75  00 00                             add     [eax],al
 0c77  00 00                             add     [eax],al
 0c79  00 00                             add     [eax],al
 0c7b  00 00                             add     [eax],al
 0c7d  00 00                             add     [eax],al
 0c7f  00 00                             add     [eax],al
 0c81  00 00                             add     [eax],al
 0c83  00 00                             add     [eax],al
 0c85  00 00                             add     [eax],al
 0c87  00 00                             add     [eax],al
 0c89  00 00                             add     [eax],al
 0c8b  00 00                             add     [eax],al
 0c8d  00 00                             add     [eax],al
 0c8f  00 00                             add     [eax],al
 0c91  00 00                             add     [eax],al
 0c93  00 00                             add     [eax],al
 0c95  00 00                             add     [eax],al
 0c97  00 00                             add     [eax],al
 0c99  00 00                             add     [eax],al
 0c9b  00 00                             add     [eax],al
 0c9d  00 00                             add     [eax],al
 0c9f  00 00                             add     [eax],al
 0ca1  00 00                             add     [eax],al
 0ca3  00 00                             add     [eax],al
 0ca5  00 00                             add     [eax],al
 0ca7  00 00                             add     [eax],al
 0ca9  00 00                             add     [eax],al
 0cab  00 00                             add     [eax],al
 0cad  00 00                             add     [eax],al
 0caf  00 00                             add     [eax],al
 0cb1  00 00                             add     [eax],al
 0cb3  00 00                             add     [eax],al
 0cb5  00 00                             add     [eax],al
 0cb7  00 00                             add     [eax],al
 0cb9  00 00                             add     [eax],al
 0cbb  00 00                             add     [eax],al
 0cbd  00 00                             add     [eax],al
 0cbf  00 00                             add     [eax],al
 0cc1  00 00                             add     [eax],al
 0cc3  00 00                             add     [eax],al
 0cc5  00 00                             add     [eax],al
 0cc7  00 00                             add     [eax],al
 0cc9  00 00                             add     [eax],al
 0ccb  00 00                             add     [eax],al
 0ccd  00 00                             add     [eax],al
 0ccf  00 00                             add     [eax],al
 0cd1  00 00                             add     [eax],al
 0cd3  00 00                             add     [eax],al
 0cd5  00 00                             add     [eax],al
 0cd7  00 00                             add     [eax],al
 0cd9  00 00             L141            add     [eax],al
 0cdb  00 00                             add     [eax],al
 0cdd  bf d9 0b 00 00    L142            mov     edi,offset L139
 0ce2  0f a4 f8 1c                       shld    eax,edi,1cH
 0ce6  66 83 e7 0f                       and     di,000fH
 0cea  66 a3 22 00 00 00                 mov     L4,ax
 0cf0  66 89 3d 00 00 00 
       00                                mov     L1,di
 0cf7  66 c7 05 1c 00 00 
       00 00 4f                          mov     word ptr L3,4f00H
 0d00  bf 00 00 00 00                    mov     edi,offset L1
 0d05  66 33 c9                          xor     cx,cx
 0d08  66 bb 10 00                       mov     bx,0010H
 0d0c  66 b8 00 03                       mov     ax,0300H
 0d10  cd 31                             int     31H
 0d12  81 3d d9 0b 00 00 
       56 45 53 41                       cmp     dword ptr L139,41534556H
 0d1c  0f 85 97 fe ff ff                 jne     L134
 0d22  bf d9 0b 00 00                    mov     edi,offset L139
 0d27  0f a4 f8 1c                       shld    eax,edi,1cH
 0d2b  66 83 e7 0f                       and     di,000fH
 0d2f  66 a3 22 00 00 00                 mov     L4,ax
 0d35  66 89 3d 00 00 00 
       00                                mov     L1,di
 0d3c  66 c7 05 18 00 00 
       00 0e 01                          mov     word ptr L2,010eH
 0d45  66 c7 05 1c 00 00 
       00 01 4f                          mov     word ptr L3,4f01H
 0d4e  bf 00 00 00 00                    mov     edi,offset L1
 0d53  66 33 c9                          xor     cx,cx
 0d56  66 bb 10 00                       mov     bx,0010H
 0d5a  66 b8 00 03                       mov     ax,0300H
 0d5e  cd 31                             int     31H
 0d60  66 83 3d 1c 00 00 
       00 4f                             cmp     word ptr L3,004fH
 0d68  0f 85 52 fe ff ff                 jne     L135
 0d6e  0f b6 05 dd 0b 00 
       00                                movzx   eax,byte ptr L140
 0d75  c1 e0 0a                          shl     eax,0aH
 0d78  a3 d9 0c 00 00                    mov     L141,eax
 0d7d  c3                                ret     
 0d7e  ba ec 01 00 00    L143            mov     edx,offset L35
 0d83  e8 52 f3 ff ff                    call    L16
 0d88  0f 82 39 fe ff ff                 jb      L136
 0d8e  8b fa                             mov     edi,edx
 0d90  89 35 65 02 00 00                 mov     L67,esi
 0d96  8b 07                             mov     eax,[edi]
 0d98  a3 8d 02 00 00                    mov     L82,eax
 0d9d  8b 47 04                          mov     eax,+4H[edi]
 0da0  a3 91 02 00 00                    mov     L83,eax
 0da5  8b 47 08                          mov     eax,+8H[edi]
 0da8  a3 95 02 00 00                    mov     L84,eax
 0dad  8b 47 0c                          mov     eax,+0cH[edi]
 0db0  a3 99 02 00 00                    mov     L85,eax
 0db5  83 c7 10                          add     edi,00000010H
 0db8  89 3d a1 02 00 00                 mov     L87,edi
 0dbe  33 c0                             xor     eax,eax
 0dc0  8b 15 8d 02 00 00                 mov     edx,L82
 0dc6  b9 ff ff ff ff    L144            mov     ecx,0ffffffffH
 0dcb  f2 ae                             repne   scasb    
 0dcd  4a                                dec     edx
 0dce  75 f6                             jne     L144
 0dd0  89 3d a5 02 00 00                 mov     L88,edi
 0dd6  a1 91 02 00 00                    mov     eax,L83
 0ddb  c1 e0 04                          shl     eax,04H
 0dde  03 f8                             add     edi,eax
 0de0  89 3d a9 02 00 00                 mov     L89,edi
 0de6  a1 95 02 00 00                    mov     eax,L84
 0deb  8d 04 40                          lea     eax,[eax+eax*2]
 0dee  c1 e0 02                          shl     eax,02H
 0df1  03 f8                             add     edi,eax
 0df3  89 3d ad 02 00 00                 mov     L90,edi
 0df9  03 f8                             add     edi,eax
 0dfb  89 3d b1 02 00 00                 mov     L91,edi
 0e01  a1 95 02 00 00                    mov     eax,L84
 0e06  c1 e0 03                          shl     eax,03H
 0e09  03 f8                             add     edi,eax
 0e0b  89 3d b5 02 00 00                 mov     L92,edi
 0e11  c3                                ret     
 0e12  ba f5 01 00 00    L145            mov     edx,offset L36
 0e17  e8 be f2 ff ff                    call    L16
 0e1c  0f 82 a5 fd ff ff                 jb      L136
 0e22  8b 02                             mov     eax,[edx]
 0e24  83 c2 04                          add     edx,00000004H
 0e27  89 15 35 02 00 00                 mov     L51,edx
 0e2d  89 35 69 02 00 00                 mov     L68,esi
 0e33  a3 9d 02 00 00                    mov     L86,eax
 0e38  ba fe 01 00 00                    mov     edx,offset L38
 0e3d  e8 98 f2 ff ff                    call    L16
 0e42  0f 82 7f fd ff ff                 jb      L136
 0e48  89 15 49 02 00 00                 mov     L58,edx
 0e4e  89 35 6d 02 00 00                 mov     L69,esi
 0e54  ba 07 02 00 00                    mov     edx,offset L39
 0e59  e8 7c f2 ff ff                    call    L16
 0e5e  0f 82 63 fd ff ff                 jb      L136
 0e64  8b 02                             mov     eax,[edx]
 0e66  a3 b9 02 00 00                    mov     L93,eax
 0e6b  8b c8                             mov     ecx,eax
 0e6d  8d 0c 49                          lea     ecx,[ecx+ecx*2]
 0e70  c1 e1 02                          shl     ecx,02H
 0e73  e8 ff f1 ff ff                    call    L8
 0e78  0f 82 4f fd ff ff                 jb      L137
 0e7e  89 1d 45 02 00 00                 mov     L56,ebx
 0e84  ba 10 02 00 00                    mov     edx,offset L41
 0e89  e8 4c f2 ff ff                    call    L16
 0e8e  0f 82 33 fd ff ff                 jb      L136
 0e94  89 15 5d 02 00 00                 mov     L63,edx
 0e9a  ba 19 02 00 00                    mov     edx,offset L42
 0e9f  e8 36 f2 ff ff                    call    L16
 0ea4  0f 82 1d fd ff ff                 jb      L136
 0eaa  89 15 61 02 00 00                 mov     L65,edx
 0eb0  c3                                ret     
 0eb1  8b 0d 8d 02 00 00 L146            mov     ecx,L82
 0eb7  8d 0c 49                          lea     ecx,[ecx+ecx*2]
 0eba  03 c9                             add     ecx,ecx
 0ebc  e8 b6 f1 ff ff                    call    L8
 0ec1  0f 82 06 fd ff ff                 jb      L137
 0ec7  89 1d 39 02 00 00                 mov     L52,ebx
 0ecd  89 35 71 02 00 00                 mov     L71,esi
 0ed3  89 1d 45 4d 00 00                 mov     L322,ebx
 0ed9  a1 8d 02 00 00                    mov     eax,L82
 0ede  a3 b6 14 00 00                    mov     L172,eax
 0ee3  8b 15 a1 02 00 00 L147            mov     edx,L87
 0ee9  e8 ec f1 ff ff                    call    L16
 0eee  0f 82 d3 fc ff ff                 jb      L136
 0ef4  89 35 49 4d 00 00                 mov     L323,esi
 0efa  bd ff ff 01 00                    mov     ebp,0001ffffH
 0eff  e8 2e f1 ff ff                    call    L5
 0f04  0f 82 c9 fc ff ff                 jb      L138
 0f0a  8b 3d 45 4d 00 00                 mov     edi,L322
 0f10  66 89 37                          mov     [edi],si
 0f13  a1 49 4d 00 00                    mov     eax,L323
 0f18  89 47 02                          mov     +2H[edi],eax
 0f1b  8b 3d a1 02 00 00                 mov     edi,L87
 0f21  33 c0                             xor     eax,eax
 0f23  b9 ff ff ff ff                    mov     ecx,0ffffffffH
 0f28  f2 ae                             repne   scasb    
 0f2a  89 3d a1 02 00 00                 mov     L87,edi
 0f30  83 05 45 4d 00 00 
       06                                add     dword ptr L322,00000006H
 0f37  ff 0d b6 14 00 00                 dec     dword ptr L172
 0f3d  75 a4                             jne     L147
 0f3f  c3                                ret     
 0f40  00 00             L148            add     [eax],al
 0f42  a0 41 b9 00 f4                    mov     al,[0f400b941H]
 0f47  01 00                             add     [eax],eax
 0f49  e8 29 f1 ff ff                    call    L8
 0f4e  0f 82 79 fc ff ff                 jb      L137
 0f54  89 1d 3d 02 00 00                 mov     L54,ebx
 0f5a  89 35 75 02 00 00                 mov     L72,esi
 0f60  8b fb                             mov     edi,ebx
 0f62  33 c0                             xor     eax,eax
 0f64  b9 00 7d 00 00                    mov     ecx,00007d00H
 0f69  f3 ab                             repe    stosd    
 0f6b  b9 00 e8 03 00                    mov     ecx,0003e800H
 0f70  e8 02 f1 ff ff                    call    L8
 0f75  89 1d 23 02 00 00                 mov     L43,ebx
 0f7b  8b fb                             mov     edi,ebx
 0f7d  33 c0                             xor     eax,eax
 0f7f  b9 00 7d 00 00                    mov     ecx,00007d00H
 0f84  f3 ab                             repe    stosd    
 0f86  b9 00 00 04 00                    mov     ecx,00040000H
 0f8b  e8 e7 f0 ff ff                    call    L8
 0f90  89 1d 27 02 00 00                 mov     L45,ebx
 0f96  8b d3                             mov     edx,ebx
 0f98  bd 00 00 02 00                    mov     ebp,00020000H
 0f9d  e8 90 f0 ff ff                    call    L5
 0fa2  66 89 35 2b 02 00 
       00                                mov     L47,si
 0fa9  8b 0d 95 02 00 00                 mov     ecx,L84
 0faf  8d 0c 49                          lea     ecx,[ecx+ecx*2]
 0fb2  c1 e1 02                          shl     ecx,02H
 0fb5  e8 bd f0 ff ff                    call    L8
 0fba  0f 82 0d fc ff ff                 jb      L137
 0fc0  89 1d 41 02 00 00                 mov     L55,ebx
 0fc6  89 35 79 02 00 00                 mov     L75,esi
 0fcc  8b 0d 95 02 00 00                 mov     ecx,L84
 0fd2  c1 e1 03                          shl     ecx,03H
 0fd5  e8 9d f0 ff ff                    call    L8
 0fda  0f 82 ed fb ff ff                 jb      L137
 0fe0  89 1d 4d 02 00 00                 mov     L59,ebx
 0fe6  89 35 7d 02 00 00                 mov     L76,esi
 0fec  8b 0d 95 02 00 00                 mov     ecx,L84
 0ff2  c1 e1 03                          shl     ecx,03H
 0ff5  e8 7d f0 ff ff                    call    L8
 0ffa  0f 82 cd fb ff ff                 jb      L137
 1000  89 1d 51 02 00 00                 mov     L60,ebx
 1006  89 35 81 02 00 00                 mov     L77,esi
 100c  8b 0d 99 02 00 00                 mov     ecx,L85
 1012  c1 e1 03                          shl     ecx,03H
 1015  e8 5d f0 ff ff                    call    L8
 101a  0f 82 ad fb ff ff                 jb      L137
 1020  89 1d 55 02 00 00                 mov     L61,ebx
 1026  89 35 85 02 00 00                 mov     L79,esi
 102c  b9 00 00 08 00                    mov     ecx,00080000H
 1031  e8 41 f0 ff ff                    call    L8
 1036  0f 82 91 fb ff ff                 jb      L137
 103c  89 1d 59 02 00 00                 mov     L62,ebx
 1042  89 35 89 02 00 00                 mov     L81,esi
 1048  be e1 02 00 00                    mov     esi,offset L103
 104d  a1 3d 02 00 00                    mov     eax,L54
 1052  b9 c8 00 00 00                    mov     ecx,000000c8H
 1057  01 06             L150            add     [esi],eax
 1059  83 c6 04                          add     esi,00000004H
 105c  49                                dec     ecx
 105d  75 f8                             jne     L150
 105f  be 01 06 00 00                    mov     esi,offset L112
 1064  a1 27 02 00 00                    mov     eax,L45
 1069  b9 00 01 00 00                    mov     ecx,00000100H
 106e  01 06             L151            add     [esi],eax
 1070  83 c6 04                          add     esi,00000004H
 1073  49                                dec     ecx
 1074  75 f8                             jne     L151
 1076  d9 05 89 18 00 00                 fld     dword ptr L224
 107c  d8 25 40 0f 00 00                 fsub    dword ptr L148
 1082  d9 1d 8d 18 00 00                 fstp    dword ptr L225
 1088  c3                                ret     
 1089  8b 3d 65 02 00 00 L152            mov     edi,L67
 108f  e8 fd ef ff ff                    call    L10
 1094  8b 3d 69 02 00 00                 mov     edi,L68
 109a  e8 f2 ef ff ff                    call    L10
 109f  8b 3d 6d 02 00 00                 mov     edi,L69
 10a5  e8 e7 ef ff ff                    call    L10
 10aa  8b 35 39 02 00 00 L153            mov     esi,L52
 10b0  8b 7e 02                          mov     edi,+2H[esi]
 10b3  e8 d9 ef ff ff                    call    L10
 10b8  83 05 39 02 00 00 
       06                                add     dword ptr L52,00000006H
 10bf  ff 0d 8d 02 00 00                 dec     dword ptr L82
 10c5  75 e3                             jne     L153
 10c7  8b 3d 71 02 00 00                 mov     edi,L71
 10cd  e8 bf ef ff ff                    call    L10
 10d2  8b 3d 75 02 00 00                 mov     edi,L72
 10d8  e8 b4 ef ff ff                    call    L10
 10dd  8b 3d 79 02 00 00                 mov     edi,L75
 10e3  e8 a9 ef ff ff                    call    L10
 10e8  8b 3d 7d 02 00 00                 mov     edi,L76
 10ee  e8 9e ef ff ff                    call    L10
 10f3  8b 3d 81 02 00 00                 mov     edi,L77
 10f9  e8 93 ef ff ff                    call    L10
 10fe  8b 3d 85 02 00 00                 mov     edi,L79
 1104  e8 88 ef ff ff                    call    L10
 1109  8b 3d 89 02 00 00                 mov     edi,L81
 110f  e8 7d ef ff ff                    call    L10
 1114  c3                                ret     
 1115  8b 35 3d 02 00 00 L154            mov     esi,L54
 111b  bd 00 f4 01 00                    mov     ebp,0001f400H
 1120  33 d2                             xor     edx,edx
 1122  33 db             L155            xor     ebx,ebx
 1124  66 b8 05 4f                       mov     ax,4f05H
 1128  cd 10                             int     10H
 112a  bf 00 00 0a 00                    mov     edi,000a0000H
 112f  8b 0d d9 0c 00 00                 mov     ecx,L141
 1135  c1 e9 02                          shr     ecx,02H
 1138  f3 a5                             repe    movsd    
 113a  42                                inc     edx
 113b  2b 2d d9 0c 00 00                 sub     ebp,L141
 1141  7f df                             jg      L155
 1143  8b 3d 3d 02 00 00                 mov     edi,L54
 1149  33 c0                             xor     eax,eax
 114b  b9 00 7d 00 00                    mov     ecx,00007d00H
 1150  f3 ab                             repe    stosd    
 1152  8b 3d 27 02 00 00                 mov     edi,L45
 1158  33 c0                             xor     eax,eax
 115a  b9 00 80 00 00                    mov     ecx,00008000H
 115f  f3 ab                             repe    stosd    
 1161  c3                                ret     
 1162  8b 3d 23 02 00 00 L156            mov     edi,L43
 1168  b8 00 54 1f 00                    mov     eax,001f5400H
 116d  b9 00 fa 00 00                    mov     ecx,0000fa00H
 1172  f3 ab                             repe    stosd    
 1174  c3                                ret     
 1175  00 00             L157            add     [eax],al
 1177  00 43 00                          add     +0H[ebx],al
 117a  00 80 43 00 00 80                 add     -7fffffbdH[eax],al
 1180  bf 00 00 00 00                    mov     edi,00000000H
 1185  00 00             L161            add     [eax],al
 1187  00 00                             add     [eax],al
 1189  00 00             L162            add     [eax],al
 118b  00 00                             add     [eax],al
 118d  00 00             L163            add     [eax],al
 118f  00 00                             add     [eax],al
 1191  00 00             L164            add     [eax],al
 1193  00 00                             add     [eax],al
 1195  8b 35 a9 02 00 00 L165            mov     esi,L89
 119b  8b 3d 41 02 00 00                 mov     edi,L55
 11a1  a1 8f 68 00 00                    mov     eax,L484
 11a6  6b c0 30                          imul    eax,30H
 11a9  0f af 05 91 02 00 
       00                                imul    eax,L83
 11b0  03 05 bd 02 00 00                 add     eax,L94
 11b6  a3 81 11 00 00                    mov     L160,eax
 11bb  a1 8f 68 00 00                    mov     eax,L484
 11c0  6b c0 60                          imul    eax,60H
 11c3  03 05 c1 02 00 00                 add     eax,L95
 11c9  a3 85 11 00 00                    mov     L161,eax
 11ce  a1 ad 02 00 00                    mov     eax,L90
 11d3  8b 0d 4d 02 00 00                 mov     ecx,L59
 11d9  8b 2d a5 02 00 00                 mov     ebp,L88
 11df  8b 15 91 02 00 00                 mov     edx,L83
 11e5  89 15 45 4d 00 00                 mov     L322,edx
 11eb  8b 55 00          L166            mov     edx,+0H[ebp]
 11ee  8b 1d 81 11 00 00 L167            mov     ebx,L160
 11f4  d9 06                             fld     dword ptr [esi]
 11f6  d8 0b                             fmul    dword ptr [ebx]
 11f8  d9 46 04                          fld     dword ptr +4H[esi]
 11fb  d8 4b 04                          fmul    dword ptr +4H[ebx]
 11fe  d9 46 08                          fld     dword ptr +8H[esi]
 1201  d8 4b 08                          fmul    dword ptr +8H[ebx]
 1204  de c1                             faddp   st(1),st
 1206  de c1                             faddp   st(1),st
 1208  d8 43 24                          fadd    dword ptr +24H[ebx]
 120b  d9 1d 89 11 00 00                 fstp    dword ptr L162
 1211  d9 06                             fld     dword ptr [esi]
 1213  d8 4b 0c                          fmul    dword ptr +0cH[ebx]
 1216  d9 46 04                          fld     dword ptr +4H[esi]
 1219  d8 4b 10                          fmul    dword ptr +10H[ebx]
 121c  d9 46 08                          fld     dword ptr +8H[esi]
 121f  d8 4b 14                          fmul    dword ptr +14H[ebx]
 1222  de c1                             faddp   st(1),st
 1224  de c1                             faddp   st(1),st
 1226  d8 43 28                          fadd    dword ptr +28H[ebx]
 1229  d9 1d 8d 11 00 00                 fstp    dword ptr L163
 122f  d9 06                             fld     dword ptr [esi]
 1231  d8 4b 18                          fmul    dword ptr +18H[ebx]
 1234  d9 46 04                          fld     dword ptr +4H[esi]
 1237  d8 4b 1c                          fmul    dword ptr +1cH[ebx]
 123a  d9 46 08                          fld     dword ptr +8H[esi]
 123d  d8 4b 20                          fmul    dword ptr +20H[ebx]
 1240  de c1                             faddp   st(1),st
 1242  de c1                             faddp   st(1),st
 1244  d8 43 2c                          fadd    dword ptr +2cH[ebx]
 1247  d9 1d 91 11 00 00                 fstp    dword ptr L164
 124d  8b 1d 85 11 00 00                 mov     ebx,L161
 1253  d9 05 89 11 00 00                 fld     dword ptr L162
 1259  d8 43 24                          fadd    dword ptr +24H[ebx]
 125c  d9 1d 89 11 00 00                 fstp    dword ptr L162
 1262  d9 05 8d 11 00 00                 fld     dword ptr L163
 1268  d8 43 28                          fadd    dword ptr +28H[ebx]
 126b  d9 1d 8d 11 00 00                 fstp    dword ptr L163
 1271  d9 05 91 11 00 00                 fld     dword ptr L164
 1277  d8 43 2c                          fadd    dword ptr +2cH[ebx]
 127a  d9 1d 91 11 00 00                 fstp    dword ptr L164
 1280  d9 05 89 11 00 00                 fld     dword ptr L162
 1286  d8 0b                             fmul    dword ptr [ebx]
 1288  d9 05 8d 11 00 00                 fld     dword ptr L163
 128e  d8 4b 04                          fmul    dword ptr +4H[ebx]
 1291  d9 05 91 11 00 00                 fld     dword ptr L164
 1297  d8 4b 08                          fmul    dword ptr +8H[ebx]
 129a  de c1                             faddp   st(1),st
 129c  de c1                             faddp   st(1),st
 129e  d9 1f                             fstp    dword ptr [edi]
 12a0  d9 05 89 11 00 00                 fld     dword ptr L162
 12a6  d8 4b 0c                          fmul    dword ptr +0cH[ebx]
 12a9  d9 05 8d 11 00 00                 fld     dword ptr L163
 12af  d8 4b 10                          fmul    dword ptr +10H[ebx]
 12b2  d9 05 91 11 00 00                 fld     dword ptr L164
 12b8  d8 4b 14                          fmul    dword ptr +14H[ebx]
 12bb  de c1                             faddp   st(1),st
 12bd  de c1                             faddp   st(1),st
 12bf  d8 0d 7d 11 00 00                 fmul    dword ptr L159
 12c5  d9 5f 04                          fstp    dword ptr +4H[edi]
 12c8  d9 05 89 11 00 00                 fld     dword ptr L162
 12ce  d8 4b 18                          fmul    dword ptr +18H[ebx]
 12d1  d9 05 8d 11 00 00                 fld     dword ptr L163
 12d7  d8 4b 1c                          fmul    dword ptr +1cH[ebx]
 12da  d9 05 91 11 00 00                 fld     dword ptr L164
 12e0  d8 4b 20                          fmul    dword ptr +20H[ebx]
 12e3  de c1                             faddp   st(1),st
 12e5  de c1                             faddp   st(1),st
 12e7  d9 5f 08                          fstp    dword ptr +8H[edi]
 12ea  83 c6 0c                          add     esi,0000000cH
 12ed  83 c7 0c                          add     edi,0000000cH
 12f0  4a                                dec     edx
 12f1  0f 85 f7 fe ff ff                 jne     L167
 12f7  8b 55 00                          mov     edx,+0H[ebp]
 12fa  83 7d 08 02                       cmp     dword ptr +8H[ebp],00000002H
 12fe  74 10                             je      L168
 1300  c1 e2 02                          shl     edx,02H
 1303  8d 0c 51                          lea     ecx,[ecx+edx*2]
 1306  8d 14 52                          lea     edx,[edx+edx*2]
 1309  03 c2                             add     eax,edx
 130b  e9 c3 00 00 00                    jmp     L169
 1310  8b 1d 81 11 00 00 L168            mov     ebx,L160
 1316  d9 00                             fld     dword ptr [eax]
 1318  d8 0b                             fmul    dword ptr [ebx]
 131a  d9 40 04                          fld     dword ptr +4H[eax]
 131d  d8 4b 04                          fmul    dword ptr +4H[ebx]
 1320  d9 40 08                          fld     dword ptr +8H[eax]
 1323  d8 4b 08                          fmul    dword ptr +8H[ebx]
 1326  de c1                             faddp   st(1),st
 1328  de c1                             faddp   st(1),st
 132a  d9 1d 89 11 00 00                 fstp    dword ptr L162
 1330  d9 00                             fld     dword ptr [eax]
 1332  d8 4b 0c                          fmul    dword ptr +0cH[ebx]
 1335  d9 40 04                          fld     dword ptr +4H[eax]
 1338  d8 4b 10                          fmul    dword ptr +10H[ebx]
 133b  d9 40 08                          fld     dword ptr +8H[eax]
 133e  d8 4b 14                          fmul    dword ptr +14H[ebx]
 1341  de c1                             faddp   st(1),st
 1343  de c1                             faddp   st(1),st
 1345  d9 1d 8d 11 00 00                 fstp    dword ptr L163
 134b  d9 00                             fld     dword ptr [eax]
 134d  d8 4b 18                          fmul    dword ptr +18H[ebx]
 1350  d9 40 04                          fld     dword ptr +4H[eax]
 1353  d8 4b 1c                          fmul    dword ptr +1cH[ebx]
 1356  d9 40 08                          fld     dword ptr +8H[eax]
 1359  d8 4b 20                          fmul    dword ptr +20H[ebx]
 135c  de c1                             faddp   st(1),st
 135e  de c1                             faddp   st(1),st
 1360  d9 1d 91 11 00 00                 fstp    dword ptr L164
 1366  8b 1d 85 11 00 00                 mov     ebx,L161
 136c  d9 05 89 11 00 00                 fld     dword ptr L162
 1372  d8 0b                             fmul    dword ptr [ebx]
 1374  d9 05 8d 11 00 00                 fld     dword ptr L163
 137a  d8 4b 04                          fmul    dword ptr +4H[ebx]
 137d  d9 05 91 11 00 00                 fld     dword ptr L164
 1383  d8 4b 08                          fmul    dword ptr +8H[ebx]
 1386  de c1                             faddp   st(1),st
 1388  de c1                             faddp   st(1),st
 138a  d8 05 75 11 00 00                 fadd    dword ptr L157
 1390  d8 0d 79 11 00 00                 fmul    dword ptr L158
 1396  d9 19                             fstp    dword ptr [ecx]
 1398  d9 05 89 11 00 00                 fld     dword ptr L162
 139e  d8 4b 0c                          fmul    dword ptr +0cH[ebx]
 13a1  d9 05 8d 11 00 00                 fld     dword ptr L163
 13a7  d8 4b 10                          fmul    dword ptr +10H[ebx]
 13aa  d9 05 91 11 00 00                 fld     dword ptr L164
 13b0  d8 4b 14                          fmul    dword ptr +14H[ebx]
 13b3  de c1                             faddp   st(1),st
 13b5  de c1                             faddp   st(1),st
 13b7  d8 05 75 11 00 00                 fadd    dword ptr L157
 13bd  d8 0d 79 11 00 00                 fmul    dword ptr L158
 13c3  d9 59 04                          fstp    dword ptr +4H[ecx]
 13c6  83 c0 0c                          add     eax,0000000cH
 13c9  83 c1 08                          add     ecx,00000008H
 13cc  4a                                dec     edx
 13cd  0f 85 3d ff ff ff                 jne     L168
 13d3  83 05 81 11 00 00 
       30                L169            add     dword ptr L160,00000030H
 13da  83 c5 10                          add     ebp,00000010H
 13dd  ff 0d 45 4d 00 00                 dec     dword ptr L322
 13e3  0f 85 02 fe ff ff                 jne     L166
 13e9  c3                                ret     
 13ea  8b 35 8f 68 00 00 L170            mov     esi,L484
 13f0  6b f6 18                          imul    esi,18H
 13f3  0f af 35 b9 02 00 
       00                                imul    esi,L93
 13fa  03 35 5d 02 00 00                 add     esi,L63
 1400  8b 3d 45 02 00 00                 mov     edi,L56
 1406  8b 1d 8f 68 00 00                 mov     ebx,L484
 140c  6b db 60                          imul    ebx,60H
 140f  03 1d c1 02 00 00                 add     ebx,L95
 1415  8b 15 b9 02 00 00                 mov     edx,L93
 141b  d9 06             L171            fld     dword ptr [esi]
 141d  d8 43 24                          fadd    dword ptr +24H[ebx]
 1420  d9 1d 89 11 00 00                 fstp    dword ptr L162
 1426  d9 46 04                          fld     dword ptr +4H[esi]
 1429  d8 43 28                          fadd    dword ptr +28H[ebx]
 142c  d9 1d 8d 11 00 00                 fstp    dword ptr L163
 1432  d9 46 08                          fld     dword ptr +8H[esi]
 1435  d8 43 2c                          fadd    dword ptr +2cH[ebx]
 1438  d9 1d 91 11 00 00                 fstp    dword ptr L164
 143e  d9 05 89 11 00 00                 fld     dword ptr L162
 1444  d8 0b                             fmul    dword ptr [ebx]
 1446  d9 05 8d 11 00 00                 fld     dword ptr L163
 144c  d8 4b 04                          fmul    dword ptr +4H[ebx]
 144f  d9 05 91 11 00 00                 fld     dword ptr L164
 1455  d8 4b 08                          fmul    dword ptr +8H[ebx]
 1458  de c1                             faddp   st(1),st
 145a  de c1                             faddp   st(1),st
 145c  d9 1f                             fstp    dword ptr [edi]
 145e  d9 05 89 11 00 00                 fld     dword ptr L162
 1464  d8 4b 0c                          fmul    dword ptr +0cH[ebx]
 1467  d9 05 8d 11 00 00                 fld     dword ptr L163
 146d  d8 4b 10                          fmul    dword ptr +10H[ebx]
 1470  d9 05 91 11 00 00                 fld     dword ptr L164
 1476  d8 4b 14                          fmul    dword ptr +14H[ebx]
 1479  de c1                             faddp   st(1),st
 147b  de c1                             faddp   st(1),st
 147d  d8 0d 7d 11 00 00                 fmul    dword ptr L159
 1483  d9 5f 04                          fstp    dword ptr +4H[edi]
 1486  d9 05 89 11 00 00                 fld     dword ptr L162
 148c  d8 4b 18                          fmul    dword ptr +18H[ebx]
 148f  d9 05 8d 11 00 00                 fld     dword ptr L163
 1495  d8 4b 1c                          fmul    dword ptr +1cH[ebx]
 1498  d9 05 91 11 00 00                 fld     dword ptr L164
 149e  d8 4b 20                          fmul    dword ptr +20H[ebx]
 14a1  de c1                             faddp   st(1),st
 14a3  de c1                             faddp   st(1),st
 14a5  d9 5f 08                          fstp    dword ptr +8H[edi]
 14a8  83 c6 18                          add     esi,00000018H
 14ab  83 c7 0c                          add     edi,0000000cH
 14ae  4a                                dec     edx
 14af  0f 85 66 ff ff ff                 jne     L171
 14b5  c3                                ret     
 14b6  00 00             L172            add     [eax],al
 14b8  00 00                             add     [eax],al
 14ba  00 00             L173            add     [eax],al
 14bc  00 00                             add     [eax],al
 14be  00 00             L174            add     [eax],al
 14c0  00 00                             add     [eax],al
 14c2  00 00             L175            add     [eax],al
 14c4  00 00                             add     [eax],al
 14c6  c7 05 b6 14 00 00 
       00 00 00 00       L176            mov     dword ptr L172,00000000H
 14d0  c7 05 ba 14 00 00 
       00 00 00 00                       mov     dword ptr L173,00000000H
 14da  8b 35 b5 02 00 00                 mov     esi,L92
 14e0  8b 3d 55 02 00 00                 mov     edi,L61
 14e6  8b 2d 41 02 00 00                 mov     ebp,L55
 14ec  a1 a5 02 00 00                    mov     eax,L88
 14f1  a3 be 14 00 00                    mov     L174,eax
 14f6  a1 91 02 00 00                    mov     eax,L83
 14fb  a3 45 4d 00 00                    mov     L322,eax
 1500  8b 1d be 14 00 00 L177            mov     ebx,L174
 1506  8b 43 04                          mov     eax,+4H[ebx]
 1509  a3 49 4d 00 00                    mov     L323,eax
 150e  8b 16             L178            mov     edx,[esi]
 1510  8b 5e 04                          mov     ebx,+4H[esi]
 1513  8b 4e 08                          mov     ecx,+8H[esi]
 1516  d9 84 49 11 11 11 
       11                                fld     dword ptr +11111111H[ecx+ecx*2]
 151d  d8 8c 5b 11 11 11 
       11                                fmul    dword ptr +11111111H[ebx+ebx*2]
 1524  d9 84 49 11 11 11 
       11                                fld     dword ptr +11111111H[ecx+ecx*2]
 152b  d8 8c 5b 11 11 11 
       11                                fmul    dword ptr +11111111H[ebx+ebx*2]
 1532  de e9                             fsubp   st(1),st
 1534  d8 8c 52 11 11 11 
       11                                fmul    dword ptr +11111111H[edx+edx*2]
 153b  d9 84 49 11 11 11 
       11                                fld     dword ptr +11111111H[ecx+ecx*2]
 1542  d8 8c 5b 11 11 11 
       11                                fmul    dword ptr +11111111H[ebx+ebx*2]
 1549  d9 84 49 11 11 11 
       11                                fld     dword ptr +11111111H[ecx+ecx*2]
 1550  d8 8c 5b 11 11 11 
       11                                fmul    dword ptr +11111111H[ebx+ebx*2]
 1557  de e9                             fsubp   st(1),st
 1559  d8 8c 52 11 11 11 
       11                                fmul    dword ptr +11111111H[edx+edx*2]
 1560  d9 84 49 11 11 11 
       11                                fld     dword ptr +11111111H[ecx+ecx*2]
 1567  d8 8c 5b 11 11 11 
       11                                fmul    dword ptr +11111111H[ebx+ebx*2]
 156e  d9 84 49 11 11 11 
       11                                fld     dword ptr +11111111H[ecx+ecx*2]
 1575  d8 8c 5b 11 11 11 
       11                                fmul    dword ptr +11111111H[ebx+ebx*2]
 157c  de e9                             fsubp   st(1),st
 157e  d8 8c 52 11 11 11 
       11                                fmul    dword ptr +11111111H[edx+edx*2]
 1585  de c1                             faddp   st(1),st
 1587  de c1                             faddp   st(1),st
 1589  d8 1d c2 14 00 00                 fcomp   dword ptr L175
 158f  9b df e0                          fstsw   ax
 1592  9b                                wait    
 1593  9e                                sahf    
 1594  77 53                             ja      L199
 1596  d9 84 52 11 11 11 
       11                                fld     dword ptr +11111111H[edx+edx*2]
 159d  db 1d 4d 4d 00 00                 fistp   dword ptr L324
 15a3  a1 4d 4d 00 00                    mov     eax,L324
 15a8  d9 84 5b 11 11 11 
       11                                fld     dword ptr +11111111H[ebx+ebx*2]
 15af  db 1d 4d 4d 00 00                 fistp   dword ptr L324
 15b5  39 05 4d 4d 00 00                 cmp     L324,eax
 15bb  7e 05                             jle     L196
 15bd  a1 4d 4d 00 00                    mov     eax,L324
 15c2  d9 84 49 11 11 11 
       11                L196            fld     dword ptr +11111111H[ecx+ecx*2]
 15c9  db 1d 4d 4d 00 00                 fistp   dword ptr L324
 15cf  39 05 4d 4d 00 00                 cmp     L324,eax
 15d5  7e 05                             jle     L198
 15d7  a1 4d 4d 00 00                    mov     eax,L324
 15dc  ab                L198            stosd   
 15dd  a1 ba 14 00 00                    mov     eax,L173
 15e2  ab                                stosd   
 15e3  ff 05 b6 14 00 00                 inc     dword ptr L172
 15e9  83 c6 10          L199            add     esi,00000010H
 15ec  81 05 ba 14 00 00 
       00 00 01 00                       add     dword ptr L173,00010000H
 15f6  ff 0d 49 4d 00 00                 dec     dword ptr L323
 15fc  0f 85 0c ff ff ff                 jne     L178
 1602  83 05 ba 14 00 00 
       10                                add     dword ptr L173,00000010H
 1609  83 05 be 14 00 00 
       10                                add     dword ptr L174,00000010H
 1610  ff 0d 45 4d 00 00                 dec     dword ptr L322
 1616  0f 85 e4 fe ff ff                 jne     L177
 161c  c3                                ret     
 161d  8b 35 41 02 00 00 L200            mov     esi,L55
 1623  8b 3d 51 02 00 00                 mov     edi,L60
 1629  8b 0d 95 02 00 00                 mov     ecx,L84
 162f  d9 46 08          L201            fld     dword ptr +8H[esi]
 1632  db 1d 45 4d 00 00                 fistp   dword ptr L322
 1638  81 3d 45 4d 00 00 
       11 11 11 11                       cmp     dword ptr L322,11111111H
 1642  7c 2b                             jl      L203
 1644  d9 e8                             fld1    
 1646  d8 76 08                          fdiv    dword ptr +8H[esi]
 1649  d9 06                             fld     dword ptr [esi]
 164b  d8 0d 89 18 00 00                 fmul    dword ptr L224
 1651  d8 c9                             fmul    st,st(1)
 1653  d8 05 91 18 00 00                 fadd    dword ptr L226
 1659  db 1f                             fistp   dword ptr [edi]
 165b  d9 46 04                          fld     dword ptr +4H[esi]
 165e  d8 0d 8d 18 00 00                 fmul    dword ptr L225
 1664  de c9                             fmulp   st(1),st
 1666  d8 05 95 18 00 00                 fadd    dword ptr L227
 166c  db 5f 04                          fistp   dword ptr +4H[edi]
 166f  83 c6 0c          L203            add     esi,0000000cH
 1672  83 c7 08                          add     edi,00000008H
 1675  49                                dec     ecx
 1676  75 b7                             jne     L201
 1678  c3                                ret     
 1679  24 17 00 00       L204            DD      L213
 167d  be 16 00 00                       DD      L209
 1681  b6 16 00 00                       DD      L208
 1685  89 16 00 00                       DD      L205
 1689  8d 14 52          L205            lea     edx,[edx+edx*2]
 168c  03 d2                             add     edx,edx
 168e  8e a2 11 11 11 11                 mov     fs,+11111111H[edx]
 1694  0f b7 74 ce fe                    movzx   esi,word ptr -2H[esi+ecx*8]
 1699  c1 e6 04                          shl     esi,04H
 169c  03 35 b5 02 00 00                 add     esi,L92
 16a2  e8 b2 02 00 00                    call    L276
 16a7  83 3d 75 18 00 00 
       00                                cmp     dword ptr L219,00000000H
 16ae  74 05                             je      L207
 16b0  e8 d0 36 00 00                    call    L338
 16b5  c3                L207            ret     
 16b6  8b 2d 4d 02 00 00 L208            mov     ebp,L59
 16bc  eb 06                             jmp     L210
 16be  8b 2d b1 02 00 00 L209            mov     ebp,L91
 16c4  8d 14 52          L210            lea     edx,[edx+edx*2]
 16c7  03 d2                             add     edx,edx
 16c9  8e a2 11 11 11 11                 mov     fs,+11111111H[edx]
 16cf  0f b7 74 ce fe                    movzx   esi,word ptr -2H[esi+ecx*8]
 16d4  c1 e6 04                          shl     esi,04H
 16d7  03 35 b5 02 00 00                 add     esi,L92
 16dd  e8 d8 3c 00 00                    call    L371
 16e2  83 3d 75 18 00 00 
       00                                cmp     dword ptr L219,00000000H
 16e9  74 ca                             je      L207
 16eb  e8 ff 47 00 00                    call    L405
 16f0  c3                                ret     
 16f1  8b 2d b1 02 00 00                 mov     ebp,L91
 16f7  8d 14 52                          lea     edx,[edx+edx*2]
 16fa  03 d2                             add     edx,edx
 16fc  8e a2 11 11 11 11                 mov     fs,+11111111H[edx]
 1702  0f b7 74 ce fe                    movzx   esi,word ptr -2H[esi+ecx*8]
 1707  c1 e6 04                          shl     esi,04H
 170a  03 35 b5 02 00 00                 add     esi,L92
 1710  e8 a5 3c 00 00                    call    L371
 1715  83 3d 75 18 00 00 
       00                                cmp     dword ptr L219,00000000H
 171c  74 97                             je      L207
 171e  e8 d4 49 00 00                    call    L424
 1723  c3                                ret     
 1724  8d 14 52          L213            lea     edx,[edx+edx*2]
 1727  03 d2                             add     edx,edx
 1729  8e 25 2b 02 00 00                 mov     fs,L47
 172f  0f b7 74 ce fe                    movzx   esi,word ptr -2H[esi+ecx*8]
 1734  c1 e6 04                          shl     esi,04H
 1737  03 35 b5 02 00 00                 add     esi,L92
 173d  e8 17 02 00 00                    call    L276
 1742  83 3d 75 18 00 00 
       00                                cmp     dword ptr L219,00000000H
 1749  0f 84 66 ff ff ff                 je      L207
 174f  e8 31 36 00 00                    call    L338
 1754  c3                                ret     
 1755  0f a0             L214            push    fs
 1757  8b 35 55 02 00 00                 mov     esi,L61
 175d  8b 0d b6 14 00 00                 mov     ecx,L172
 1763  0f b7 7c ce fc    L215            movzx   edi,word ptr -4H[esi+ecx*8]
 1768  8b 9f 11 11 11 11                 mov     ebx,+11111111H[edi]
 176e  8b 97 11 11 11 11                 mov     edx,+11111111H[edi]
 1774  51                                push    ecx
 1775  56                                push    esi
 1776  ff 14 9d 79 16 00 
       00                                call    dword ptr L204[ebx*4]
 177d  5e                                pop     esi
 177e  59                                pop     ecx
 177f  49                                dec     ecx
 1780  75 e1                             jne     L215
 1782  0f a1                             pop     fs
 1784  c3                                ret     
 1785  00 00             L218            add     [eax],al
 1787  00 00                             add     [eax],al
 1789  00 00                             add     [eax],al
 178b  00 00                             add     [eax],al
 178d  00 00                             add     [eax],al
 178f  00 00                             add     [eax],al
 1791  00 00                             add     [eax],al
 1793  00 00                             add     [eax],al
 1795  00 00                             add     [eax],al
 1797  00 00                             add     [eax],al
 1799  00 00                             add     [eax],al
 179b  00 00                             add     [eax],al
 179d  00 00                             add     [eax],al
 179f  00 00                             add     [eax],al
 17a1  00 00                             add     [eax],al
 17a3  00 00                             add     [eax],al
 17a5  00 00                             add     [eax],al
 17a7  00 00                             add     [eax],al
 17a9  00 00                             add     [eax],al
 17ab  00 00                             add     [eax],al
 17ad  00 00                             add     [eax],al
 17af  00 00                             add     [eax],al
 17b1  00 00                             add     [eax],al
 17b3  00 00                             add     [eax],al
 17b5  00 00                             add     [eax],al
 17b7  00 00                             add     [eax],al
 17b9  00 00                             add     [eax],al
 17bb  00 00                             add     [eax],al
 17bd  00 00                             add     [eax],al
 17bf  00 00                             add     [eax],al
 17c1  00 00                             add     [eax],al
 17c3  00 00                             add     [eax],al
 17c5  00 00                             add     [eax],al
 17c7  00 00                             add     [eax],al
 17c9  00 00                             add     [eax],al
 17cb  00 00                             add     [eax],al
 17cd  00 00                             add     [eax],al
 17cf  00 00                             add     [eax],al
 17d1  00 00                             add     [eax],al
 17d3  00 00                             add     [eax],al
 17d5  00 00                             add     [eax],al
 17d7  00 00                             add     [eax],al
 17d9  00 00                             add     [eax],al
 17db  00 00                             add     [eax],al
 17dd  00 00                             add     [eax],al
 17df  00 00                             add     [eax],al
 17e1  00 00                             add     [eax],al
 17e3  00 00                             add     [eax],al
 17e5  00 00                             add     [eax],al
 17e7  00 00                             add     [eax],al
 17e9  00 00                             add     [eax],al
 17eb  00 00                             add     [eax],al
 17ed  00 00                             add     [eax],al
 17ef  00 00                             add     [eax],al
 17f1  00 00                             add     [eax],al
 17f3  00 00                             add     [eax],al
 17f5  00 00                             add     [eax],al
 17f7  00 00                             add     [eax],al
 17f9  00 00                             add     [eax],al
 17fb  00 00                             add     [eax],al
 17fd  00 00                             add     [eax],al
 17ff  00 00                             add     [eax],al
 1801  00 00                             add     [eax],al
 1803  00 00                             add     [eax],al
 1805  00 00                             add     [eax],al
 1807  00 00                             add     [eax],al
 1809  00 00                             add     [eax],al
 180b  00 00                             add     [eax],al
 180d  00 00                             add     [eax],al
 180f  00 00                             add     [eax],al
 1811  00 00                             add     [eax],al
 1813  00 00                             add     [eax],al
 1815  00 00                             add     [eax],al
 1817  00 00                             add     [eax],al
 1819  00 00                             add     [eax],al
 181b  00 00                             add     [eax],al
 181d  00 00                             add     [eax],al
 181f  00 00                             add     [eax],al
 1821  00 00                             add     [eax],al
 1823  00 00                             add     [eax],al
 1825  00 00                             add     [eax],al
 1827  00 00                             add     [eax],al
 1829  00 00                             add     [eax],al
 182b  00 00                             add     [eax],al
 182d  00 00                             add     [eax],al
 182f  00 00                             add     [eax],al
 1831  00 00                             add     [eax],al
 1833  00 00                             add     [eax],al
 1835  00 00                             add     [eax],al
 1837  00 00                             add     [eax],al
 1839  00 00                             add     [eax],al
 183b  00 00                             add     [eax],al
 183d  00 00                             add     [eax],al
 183f  00 00                             add     [eax],al
 1841  00 00                             add     [eax],al
 1843  00 00                             add     [eax],al
 1845  00 00                             add     [eax],al
 1847  00 00                             add     [eax],al
 1849  00 00                             add     [eax],al
 184b  00 00                             add     [eax],al
 184d  00 00                             add     [eax],al
 184f  00 00                             add     [eax],al
 1851  00 00                             add     [eax],al
 1853  00 00                             add     [eax],al
 1855  00 00                             add     [eax],al
 1857  00 00                             add     [eax],al
 1859  00 00                             add     [eax],al
 185b  00 00                             add     [eax],al
 185d  00 00                             add     [eax],al
 185f  00 00                             add     [eax],al
 1861  00 00                             add     [eax],al
 1863  00 00                             add     [eax],al
 1865  00 00                             add     [eax],al
 1867  00 00                             add     [eax],al
 1869  00 00                             add     [eax],al
 186b  00 00                             add     [eax],al
 186d  00 00                             add     [eax],al
 186f  00 00                             add     [eax],al
 1871  00 00                             add     [eax],al
 1873  00 00                             add     [eax],al
 1875  00 00             L219            add     [eax],al
 1877  00 00                             add     [eax],al
 1879  00 00             L220            add     [eax],al
 187b  00 00                             add     [eax],al
 187d  00 00             L221            add     [eax],al
 187f  00 00                             add     [eax],al
 1881  00 00             L222            add     [eax],al
 1883  00 00                             add     [eax],al
 1885  00 00             L223            add     [eax],al
 1887  00 41 00                          add     +0H[ecx],al
 188a  00 5c 43 00                       add     +0H[ebx+eax*2],bl
 188e  00 00                             add     [eax],al
 1890  00 00                             add     [eax],al
 1892  00 20                             add     [eax],ah
 1894  43                                inc     ebx
 1895  00 00             L227            add     [eax],al
 1897  c8 42 00 00                       enter   0042H,00H
 189b  00 00                             add     [eax],al
 189d  00 00             L229            add     [eax],al
 189f  00 00                             add     [eax],al
 18a1  00 00             L230            add     [eax],al
 18a3  00 00                             add     [eax],al
 18a5  00 00             L231            add     [eax],al
 18a7  00 00                             add     [eax],al
 18a9  00 00             L232            add     [eax],al
 18ab  00 00                             add     [eax],al
 18ad  00 00             L233            add     [eax],al
 18af  00 00                             add     [eax],al
 18b1  00 00             L234            add     [eax],al
 18b3  00 00                             add     [eax],al
 18b5  00 00             L235            add     [eax],al
 18b7  00 00                             add     [eax],al
 18b9  00 00             L236            add     [eax],al
 18bb  00 00                             add     [eax],al
 18bd  00 00             L237            add     [eax],al
 18bf  00 00                             add     [eax],al
 18c1  00 00             L238            add     [eax],al
 18c3  00 00                             add     [eax],al
 18c5  00 00             L239            add     [eax],al
 18c7  00 00                             add     [eax],al
 18c9  00 00             L240            add     [eax],al
 18cb  00 00                             add     [eax],al
 18cd  00 00             L241            add     [eax],al
 18cf  00 00                             add     [eax],al
 18d1  00 00             L242            add     [eax],al
 18d3  00 00                             add     [eax],al
 18d5  00 00             L243            add     [eax],al
 18d7  00 00                             add     [eax],al
 18d9  00 00             L244            add     [eax],al
 18db  00 00                             add     [eax],al
 18dd  00 00             L245            add     [eax],al
 18df  00 00                             add     [eax],al
 18e1  00 00             L246            add     [eax],al
 18e3  00 00                             add     [eax],al
 18e5  00 00             L247            add     [eax],al
 18e7  00 00                             add     [eax],al
 18e9  00 00             L248            add     [eax],al
 18eb  00 00                             add     [eax],al
 18ed  00 00             L249            add     [eax],al
 18ef  00 00                             add     [eax],al
 18f1  00 00             L250            add     [eax],al
 18f3  00 00                             add     [eax],al
 18f5  00 00             L251            add     [eax],al
 18f7  00 00                             add     [eax],al
 18f9  00 00             L252            add     [eax],al
 18fb  00 00                             add     [eax],al
 18fd  00 00             L253            add     [eax],al
 18ff  00 00                             add     [eax],al
 1901  00 00             L254            add     [eax],al
 1903  00 00                             add     [eax],al
 1905  00 00             L255            add     [eax],al
 1907  00 00                             add     [eax],al
 1909  00 00             L256            add     [eax],al
 190b  00 00                             add     [eax],al
 190d  00 00             L257            add     [eax],al
 190f  00 00                             add     [eax],al
 1911  00 00             L258            add     [eax],al
 1913  00 00                             add     [eax],al
 1915  00 00             L259            add     [eax],al
 1917  00 00                             add     [eax],al
 1919  00 00             L260            add     [eax],al
 191b  00 00                             add     [eax],al
 191d  00 00             L261            add     [eax],al
 191f  00 00                             add     [eax],al
 1921  00 00             L262            add     [eax],al
 1923  00 00                             add     [eax],al
 1925  00 00             L263            add     [eax],al
 1927  00 00                             add     [eax],al
 1929  00 00             L264            add     [eax],al
 192b  00 00                             add     [eax],al
 192d  00 00             L265            add     [eax],al
 192f  00 00                             add     [eax],al
 1931  00 00             L266            add     [eax],al
 1933  00 00                             add     [eax],al
 1935  00 00             L267            add     [eax],al
 1937  00 00                             add     [eax],al
 1939  00 00             L268            add     [eax],al
 193b  00 00                             add     [eax],al
 193d  00 00             L269            add     [eax],al
 193f  00 00                             add     [eax],al
 1941  00 00             L270            add     [eax],al
 1943  00 00                             add     [eax],al
 1945  00 00             L271            add     [eax],al
 1947  00 00                             add     [eax],al
 1949  00 00             L272            add     [eax],al
 194b  00 00                             add     [eax],al
 194d  00 00             L273            add     [eax],al
 194f  00 00                             add     [eax],al
 1951  00 00             L274            add     [eax],al
 1953  00 00                             add     [eax],al
 1955  00 00             L275            add     [eax],al
 1957  00 00                             add     [eax],al
 1959  bf 85 17 00 00    L276            mov     edi,offset L218
 195e  c7 05 75 18 00 00 
       00 00 00 00                       mov     dword ptr L219,00000000H
 1968  c7 05 79 18 00 00 
       00 00 00 00                       mov     dword ptr L220,00000000H
 1972  c7 05 7d 18 00 00 
       00 00 00 00                       mov     dword ptr L221,00000000H
 197c  c7 05 81 18 00 00 
       00 00 00 00                       mov     dword ptr L222,00000000H
 1986  b9 03 00 00 00                    mov     ecx,00000003H
 198b  8b 1e             L277            mov     ebx,[esi]
 198d  8b 56 04                          mov     edx,+4H[esi]
 1990  8b 84 5b 11 11 11 
       11                                mov     eax,+11111111H[ebx+ebx*2]
 1997  a3 99 18 00 00                    mov     L228,eax
 199c  8b 84 5b 11 11 11 
       11                                mov     eax,+11111111H[ebx+ebx*2]
 19a3  a3 9d 18 00 00                    mov     L229,eax
 19a8  d9 84 5b 11 11 11 
       11                                fld     dword ptr +11111111H[ebx+ebx*2]
 19af  db 15 51 19 00 00                 fist    dword ptr L274
 19b5  d9 1d a1 18 00 00                 fstp    dword ptr L230
 19bb  8b 04 5d 11 11 11 
       11                                mov     eax,+11111111H[ebx*2]
 19c2  a3 a5 18 00 00                    mov     L231,eax
 19c7  8b 04 5d 11 11 11 
       11                                mov     eax,+11111111H[ebx*2]
 19ce  a3 a9 18 00 00                    mov     L232,eax
 19d3  8b 84 52 11 11 11 
       11                                mov     eax,+11111111H[edx+edx*2]
 19da  a3 ad 18 00 00                    mov     L233,eax
 19df  8b 84 52 11 11 11 
       11                                mov     eax,+11111111H[edx+edx*2]
 19e6  a3 b1 18 00 00                    mov     L234,eax
 19eb  d9 84 52 11 11 11 
       11                                fld     dword ptr +11111111H[edx+edx*2]
 19f2  db 15 55 19 00 00                 fist    dword ptr L275
 19f8  d9 1d b5 18 00 00                 fstp    dword ptr L235
 19fe  8b 04 55 11 11 11 
       11                                mov     eax,+11111111H[edx*2]
 1a05  a3 b9 18 00 00                    mov     L236,eax
 1a0a  8b 04 55 11 11 11 
       11                                mov     eax,+11111111H[edx*2]
 1a11  a3 bd 18 00 00                    mov     L237,eax
 1a16  81 3d 51 19 00 00 
       11 11 11 11                       cmp     dword ptr L274,11111111H
 1a20  0f 8d 3b 01 00 00                 jge     L292
 1a26  81 3d 55 19 00 00 
       11 11 11 11                       cmp     dword ptr L275,11111111H
 1a30  0f 8c 90 09 00 00                 jl      L310
 1a36  ff 05 79 18 00 00                 inc     dword ptr L220
 1a3c  d9 05 85 18 00 00                 fld     dword ptr L223
 1a42  d8 25 a1 18 00 00                 fsub    dword ptr L230
 1a48  d9 05 b5 18 00 00                 fld     dword ptr L235
 1a4e  d8 25 a1 18 00 00                 fsub    dword ptr L230
 1a54  de f9                             fdivp   st(1),st
 1a56  d9 e8                             fld1    
 1a58  d8 35 85 18 00 00                 fdiv    dword ptr L223
 1a5e  d9 15 e5 18 00 00                 fst     dword ptr L247
 1a64  d9 1d a1 18 00 00                 fstp    dword ptr L230
 1a6a  d9 05 ad 18 00 00                 fld     dword ptr L233
 1a70  d8 25 99 18 00 00                 fsub    dword ptr L228
 1a76  d8 c9                             fmul    st,st(1)
 1a78  d8 05 99 18 00 00                 fadd    dword ptr L228
 1a7e  d8 0d 89 18 00 00                 fmul    dword ptr L224
 1a84  d8 0d a1 18 00 00                 fmul    dword ptr L230
 1a8a  d8 05 91 18 00 00                 fadd    dword ptr L226
 1a90  db 15 d9 18 00 00                 fist    dword ptr L244
 1a96  db 1d 99 18 00 00                 fistp   dword ptr L228
 1a9c  d9 05 b1 18 00 00                 fld     dword ptr L234
 1aa2  d8 25 9d 18 00 00                 fsub    dword ptr L229
 1aa8  d8 c9                             fmul    st,st(1)
 1aaa  d8 05 9d 18 00 00                 fadd    dword ptr L229
 1ab0  d8 0d 8d 18 00 00                 fmul    dword ptr L225
 1ab6  d8 0d a1 18 00 00                 fmul    dword ptr L230
 1abc  d8 05 95 18 00 00                 fadd    dword ptr L227
 1ac2  db 15 dd 18 00 00                 fist    dword ptr L245
 1ac8  db 1d 9d 18 00 00                 fistp   dword ptr L229
 1ace  d9 05 b9 18 00 00                 fld     dword ptr L236
 1ad4  d8 25 a5 18 00 00                 fsub    dword ptr L231
 1ada  d8 c9                             fmul    st,st(1)
 1adc  d8 05 a5 18 00 00                 fadd    dword ptr L231
 1ae2  d8 0d a1 18 00 00                 fmul    dword ptr L230
 1ae8  d9 15 e9 18 00 00                 fst     dword ptr L248
 1aee  d9 1d a5 18 00 00                 fstp    dword ptr L231
 1af4  d9 05 bd 18 00 00                 fld     dword ptr L237
 1afa  d8 25 a9 18 00 00                 fsub    dword ptr L232
 1b00  de c9                             fmulp   st(1),st
 1b02  d8 05 a9 18 00 00                 fadd    dword ptr L232
 1b08  d8 0d a1 18 00 00                 fmul    dword ptr L230
 1b0e  d9 15 ed 18 00 00                 fst     dword ptr L249
 1b14  d9 1d a9 18 00 00                 fstp    dword ptr L232
 1b1a  8b 04 55 11 11 11 
       11                                mov     eax,+11111111H[edx*2]
 1b21  a3 ad 18 00 00                    mov     L233,eax
 1b26  8b 04 55 11 11 11 
       11                                mov     eax,+11111111H[edx*2]
 1b2d  a3 b1 18 00 00                    mov     L234,eax
 1b32  d9 e8                             fld1    
 1b34  d8 35 b5 18 00 00                 fdiv    dword ptr L235
 1b3a  d9 05 b9 18 00 00                 fld     dword ptr L236
 1b40  d8 c9                             fmul    st,st(1)
 1b42  d9 1d b9 18 00 00                 fstp    dword ptr L236
 1b48  d9 05 bd 18 00 00                 fld     dword ptr L237
 1b4e  d8 c9                             fmul    st,st(1)
 1b50  d9 1d bd 18 00 00                 fstp    dword ptr L237
 1b56  d9 1d b5 18 00 00                 fstp    dword ptr L235
 1b5c  e9 bf 01 00 00                    jmp     L301
 1b61  81 3d 55 19 00 00 
       11 11 11 11       L292            cmp     dword ptr L275,11111111H
 1b6b  0f 8d 2b 01 00 00                 jge     L296
 1b71  ff 05 79 18 00 00                 inc     dword ptr L220
 1b77  d9 05 85 18 00 00                 fld     dword ptr L223
 1b7d  d8 25 b5 18 00 00                 fsub    dword ptr L235
 1b83  d9 05 a1 18 00 00                 fld     dword ptr L230
 1b89  d8 25 b5 18 00 00                 fsub    dword ptr L235
 1b8f  de f9                             fdivp   st(1),st
 1b91  d9 e8                             fld1    
 1b93  d8 35 85 18 00 00                 fdiv    dword ptr L223
 1b99  d9 15 c9 18 00 00                 fst     dword ptr L240
 1b9f  d9 1d b5 18 00 00                 fstp    dword ptr L235
 1ba5  d9 05 99 18 00 00                 fld     dword ptr L228
 1bab  d8 25 ad 18 00 00                 fsub    dword ptr L233
 1bb1  d8 c9                             fmul    st,st(1)
 1bb3  d8 05 ad 18 00 00                 fadd    dword ptr L233
 1bb9  d8 0d 89 18 00 00                 fmul    dword ptr L224
 1bbf  d8 0d b5 18 00 00                 fmul    dword ptr L235
 1bc5  d8 05 91 18 00 00                 fadd    dword ptr L226
 1bcb  db 15 c1 18 00 00                 fist    dword ptr L238
 1bd1  db 1d ad 18 00 00                 fistp   dword ptr L233
 1bd7  d9 05 9d 18 00 00                 fld     dword ptr L229
 1bdd  d8 25 b1 18 00 00                 fsub    dword ptr L234
 1be3  d8 c9                             fmul    st,st(1)
 1be5  d8 05 b1 18 00 00                 fadd    dword ptr L234
 1beb  d8 0d 8d 18 00 00                 fmul    dword ptr L225
 1bf1  d8 0d b5 18 00 00                 fmul    dword ptr L235
 1bf7  d8 05 95 18 00 00                 fadd    dword ptr L227
 1bfd  db 15 c5 18 00 00                 fist    dword ptr L239
 1c03  db 1d b1 18 00 00                 fistp   dword ptr L234
 1c09  d9 05 a5 18 00 00                 fld     dword ptr L231
 1c0f  d8 25 b9 18 00 00                 fsub    dword ptr L236
 1c15  d8 c9                             fmul    st,st(1)
 1c17  d8 05 b9 18 00 00                 fadd    dword ptr L236
 1c1d  d8 0d b5 18 00 00                 fmul    dword ptr L235
 1c23  d9 15 d1 18 00 00                 fst     dword ptr L242
 1c29  d9 1d b9 18 00 00                 fstp    dword ptr L236
 1c2f  d9 05 a9 18 00 00                 fld     dword ptr L232
 1c35  d8 25 bd 18 00 00                 fsub    dword ptr L237
 1c3b  de c9                             fmulp   st(1),st
 1c3d  d8 05 bd 18 00 00                 fadd    dword ptr L237
 1c43  d8 0d b5 18 00 00                 fmul    dword ptr L235
 1c49  d9 15 d5 18 00 00                 fst     dword ptr L243
 1c4f  d9 1d bd 18 00 00                 fstp    dword ptr L237
 1c55  8b 04 5d 11 11 11 
       11                                mov     eax,+11111111H[ebx*2]
 1c5c  a3 99 18 00 00                    mov     L228,eax
 1c61  8b 04 5d 11 11 11 
       11                                mov     eax,+11111111H[ebx*2]
 1c68  a3 9d 18 00 00                    mov     L229,eax
 1c6d  d9 e8                             fld1    
 1c6f  d8 35 a1 18 00 00                 fdiv    dword ptr L230
 1c75  d9 05 a5 18 00 00                 fld     dword ptr L231
 1c7b  d8 c9                             fmul    st,st(1)
 1c7d  d9 1d a5 18 00 00                 fstp    dword ptr L231
 1c83  d9 05 a9 18 00 00                 fld     dword ptr L232
 1c89  d8 c9                             fmul    st,st(1)
 1c8b  d9 1d a9 18 00 00                 fstp    dword ptr L232
 1c91  d9 1d a1 18 00 00                 fstp    dword ptr L230
 1c97  e9 84 00 00 00                    jmp     L301
 1c9c  8b 04 5d 11 11 11 
       11                L296            mov     eax,+11111111H[ebx*2]
 1ca3  a3 99 18 00 00                    mov     L228,eax
 1ca8  8b 04 5d 11 11 11 
       11                                mov     eax,+11111111H[ebx*2]
 1caf  a3 9d 18 00 00                    mov     L229,eax
 1cb4  d9 e8                             fld1    
 1cb6  d8 35 a1 18 00 00                 fdiv    dword ptr L230
 1cbc  d9 05 a5 18 00 00                 fld     dword ptr L231
 1cc2  d8 c9                             fmul    st,st(1)
 1cc4  d9 1d a5 18 00 00                 fstp    dword ptr L231
 1cca  d9 05 a9 18 00 00                 fld     dword ptr L232
 1cd0  d8 c9                             fmul    st,st(1)
 1cd2  d9 1d a9 18 00 00                 fstp    dword ptr L232
 1cd8  d9 1d a1 18 00 00                 fstp    dword ptr L230
 1cde  8b 04 55 11 11 11 
       11                                mov     eax,+11111111H[edx*2]
 1ce5  a3 ad 18 00 00                    mov     L233,eax
 1cea  8b 04 55 11 11 11 
       11                                mov     eax,+11111111H[edx*2]
 1cf1  a3 b1 18 00 00                    mov     L234,eax
 1cf6  d9 e8                             fld1    
 1cf8  d8 35 b5 18 00 00                 fdiv    dword ptr L235
 1cfe  d9 05 b9 18 00 00                 fld     dword ptr L236
 1d04  d8 c9                             fmul    st,st(1)
 1d06  d9 1d b9 18 00 00                 fstp    dword ptr L236
 1d0c  d9 05 bd 18 00 00                 fld     dword ptr L237
 1d12  d8 c9                             fmul    st,st(1)
 1d14  d9 1d bd 18 00 00                 fstp    dword ptr L237
 1d1a  d9 1d b5 18 00 00                 fstp    dword ptr L235
 1d20  a1 c5 02 00 00    L301            mov     eax,L96
 1d25  39 05 99 18 00 00                 cmp     L228,eax
 1d2b  0f 8d cd 00 00 00                 jge     L302
 1d31  39 05 ad 18 00 00                 cmp     L233,eax
 1d37  0f 8c 89 06 00 00                 jl      L310
 1d3d  ff 05 7d 18 00 00                 inc     dword ptr L221
 1d43  a1 c5 02 00 00                    mov     eax,L96
 1d48  2b 05 99 18 00 00                 sub     eax,L228
 1d4e  a3 4d 4d 00 00                    mov     L324,eax
 1d53  db 05 4d 4d 00 00                 fild    dword ptr L324
 1d59  a1 ad 18 00 00                    mov     eax,L233
 1d5e  2b 05 99 18 00 00                 sub     eax,L228
 1d64  a3 4d 4d 00 00                    mov     L324,eax
 1d69  da 35 4d 4d 00 00                 fidiv   dword ptr L324
 1d6f  a1 c5 02 00 00                    mov     eax,L96
 1d74  a3 99 18 00 00                    mov     L228,eax
 1d79  a3 f1 18 00 00                    mov     L250,eax
 1d7e  db 05 b1 18 00 00                 fild    dword ptr L234
 1d84  da 25 9d 18 00 00                 fisub   dword ptr L229
 1d8a  d8 c9                             fmul    st,st(1)
 1d8c  da 05 9d 18 00 00                 fiadd   dword ptr L229
 1d92  db 15 f5 18 00 00                 fist    dword ptr L251
 1d98  db 1d 9d 18 00 00                 fistp   dword ptr L229
 1d9e  d9 05 b5 18 00 00                 fld     dword ptr L235
 1da4  d8 25 a1 18 00 00                 fsub    dword ptr L230
 1daa  d8 c9                             fmul    st,st(1)
 1dac  d8 05 a1 18 00 00                 fadd    dword ptr L230
 1db2  d9 15 f9 18 00 00                 fst     dword ptr L252
 1db8  d9 1d a1 18 00 00                 fstp    dword ptr L230
 1dbe  d9 05 b9 18 00 00                 fld     dword ptr L236
 1dc4  d8 25 a5 18 00 00                 fsub    dword ptr L231
 1dca  d8 c9                             fmul    st,st(1)
 1dcc  d8 05 a5 18 00 00                 fadd    dword ptr L231
 1dd2  d9 15 01 19 00 00                 fst     dword ptr L254
 1dd8  d9 1d a5 18 00 00                 fstp    dword ptr L231
 1dde  d9 05 bd 18 00 00                 fld     dword ptr L237
 1de4  d8 25 a9 18 00 00                 fsub    dword ptr L232
 1dea  de c9                             fmulp   st(1),st
 1dec  d8 05 a9 18 00 00                 fadd    dword ptr L232
 1df2  d9 15 05 19 00 00                 fst     dword ptr L255
 1df8  d9 1d a9 18 00 00                 fstp    dword ptr L232
 1dfe  a1 c9 02 00 00    L302            mov     eax,L97
 1e03  39 05 ad 18 00 00                 cmp     L233,eax
 1e09  0f 8e cd 00 00 00                 jle     L303
 1e0f  39 05 99 18 00 00                 cmp     L228,eax
 1e15  0f 8f ab 05 00 00                 jg      L310
 1e1b  ff 05 81 18 00 00                 inc     dword ptr L222
 1e21  a1 c9 02 00 00                    mov     eax,L97
 1e26  2b 05 99 18 00 00                 sub     eax,L228
 1e2c  a3 4d 4d 00 00                    mov     L324,eax
 1e31  db 05 4d 4d 00 00                 fild    dword ptr L324
 1e37  a1 ad 18 00 00                    mov     eax,L233
 1e3c  2b 05 99 18 00 00                 sub     eax,L228
 1e42  a3 4d 4d 00 00                    mov     L324,eax
 1e47  da 35 4d 4d 00 00                 fidiv   dword ptr L324
 1e4d  a1 c9 02 00 00                    mov     eax,L97
 1e52  a3 ad 18 00 00                    mov     L233,eax
 1e57  a3 39 19 00 00                    mov     L268,eax
 1e5c  db 05 b1 18 00 00                 fild    dword ptr L234
 1e62  da 25 9d 18 00 00                 fisub   dword ptr L229
 1e68  d8 c9                             fmul    st,st(1)
 1e6a  da 05 9d 18 00 00                 fiadd   dword ptr L229
 1e70  db 15 3d 19 00 00                 fist    dword ptr L269
 1e76  db 1d b1 18 00 00                 fistp   dword ptr L234
 1e7c  d9 05 b5 18 00 00                 fld     dword ptr L235
 1e82  d8 25 a1 18 00 00                 fsub    dword ptr L230
 1e88  d8 c9                             fmul    st,st(1)
 1e8a  d8 05 a1 18 00 00                 fadd    dword ptr L230
 1e90  d9 15 45 19 00 00                 fst     dword ptr L271
 1e96  d9 1d b5 18 00 00                 fstp    dword ptr L235
 1e9c  d9 05 b9 18 00 00                 fld     dword ptr L236
 1ea2  d8 25 a5 18 00 00                 fsub    dword ptr L231
 1ea8  d8 c9                             fmul    st,st(1)
 1eaa  d8 05 a5 18 00 00                 fadd    dword ptr L231
 1eb0  d9 15 49 19 00 00                 fst     dword ptr L272
 1eb6  d9 1d b9 18 00 00                 fstp    dword ptr L236
 1ebc  d9 05 bd 18 00 00                 fld     dword ptr L237
 1ec2  d8 25 a9 18 00 00                 fsub    dword ptr L232
 1ec8  de c9                             fmulp   st(1),st
 1eca  d8 05 a9 18 00 00                 fadd    dword ptr L232
 1ed0  d9 15 4d 19 00 00                 fst     dword ptr L273
 1ed6  d9 1d bd 18 00 00                 fstp    dword ptr L237
 1edc  a1 c5 02 00 00    L303            mov     eax,L96
 1ee1  39 05 ad 18 00 00                 cmp     L233,eax
 1ee7  0f 8d cd 00 00 00                 jge     L304
 1eed  39 05 99 18 00 00                 cmp     L228,eax
 1ef3  0f 8c cd 04 00 00                 jl      L310
 1ef9  ff 05 7d 18 00 00                 inc     dword ptr L221
 1eff  a1 c5 02 00 00                    mov     eax,L96
 1f04  2b 05 ad 18 00 00                 sub     eax,L233
 1f0a  a3 4d 4d 00 00                    mov     L324,eax
 1f0f  db 05 4d 4d 00 00                 fild    dword ptr L324
 1f15  a1 99 18 00 00                    mov     eax,L228
 1f1a  2b 05 ad 18 00 00                 sub     eax,L233
 1f20  a3 4d 4d 00 00                    mov     L324,eax
 1f25  da 35 4d 4d 00 00                 fidiv   dword ptr L324
 1f2b  a1 c5 02 00 00                    mov     eax,L96
 1f30  a3 ad 18 00 00                    mov     L233,eax
 1f35  a3 09 19 00 00                    mov     L256,eax
 1f3a  db 05 9d 18 00 00                 fild    dword ptr L229
 1f40  da 25 b1 18 00 00                 fisub   dword ptr L234
 1f46  d8 c9                             fmul    st,st(1)
 1f48  da 05 b1 18 00 00                 fiadd   dword ptr L234
 1f4e  db 15 0d 19 00 00                 fist    dword ptr L257
 1f54  db 1d b1 18 00 00                 fistp   dword ptr L234
 1f5a  d9 05 a1 18 00 00                 fld     dword ptr L230
 1f60  d8 25 b5 18 00 00                 fsub    dword ptr L235
 1f66  d8 c9                             fmul    st,st(1)
 1f68  d8 05 b5 18 00 00                 fadd    dword ptr L235
 1f6e  d9 15 15 19 00 00                 fst     dword ptr L259
 1f74  d9 1d b5 18 00 00                 fstp    dword ptr L235
 1f7a  d9 05 a5 18 00 00                 fld     dword ptr L231
 1f80  d8 25 b9 18 00 00                 fsub    dword ptr L236
 1f86  d8 c9                             fmul    st,st(1)
 1f88  d8 05 b9 18 00 00                 fadd    dword ptr L236
 1f8e  d9 15 19 19 00 00                 fst     dword ptr L260
 1f94  d9 1d b9 18 00 00                 fstp    dword ptr L236
 1f9a  d9 05 a9 18 00 00                 fld     dword ptr L232
 1fa0  d8 25 bd 18 00 00                 fsub    dword ptr L237
 1fa6  de c9                             fmulp   st(1),st
 1fa8  d8 05 bd 18 00 00                 fadd    dword ptr L237
 1fae  d9 15 1d 19 00 00                 fst     dword ptr L261
 1fb4  d9 1d bd 18 00 00                 fstp    dword ptr L237
 1fba  a1 c9 02 00 00    L304            mov     eax,L97
 1fbf  39 05 99 18 00 00                 cmp     L228,eax
 1fc5  0f 8e cd 00 00 00                 jle     L305
 1fcb  39 05 ad 18 00 00                 cmp     L233,eax
 1fd1  0f 8f ef 03 00 00                 jg      L310
 1fd7  ff 05 81 18 00 00                 inc     dword ptr L222
 1fdd  a1 c9 02 00 00                    mov     eax,L97
 1fe2  2b 05 ad 18 00 00                 sub     eax,L233
 1fe8  a3 4d 4d 00 00                    mov     L324,eax
 1fed  db 05 4d 4d 00 00                 fild    dword ptr L324
 1ff3  a1 99 18 00 00                    mov     eax,L228
 1ff8  2b 05 ad 18 00 00                 sub     eax,L233
 1ffe  a3 4d 4d 00 00                    mov     L324,eax
 2003  da 35 4d 4d 00 00                 fidiv   dword ptr L324
 2009  a1 c9 02 00 00                    mov     eax,L97
 200e  a3 99 18 00 00                    mov     L228,eax
 2013  a3 21 19 00 00                    mov     L262,eax
 2018  db 05 9d 18 00 00                 fild    dword ptr L229
 201e  da 25 b1 18 00 00                 fisub   dword ptr L234
 2024  d8 c9                             fmul    st,st(1)
 2026  da 05 b1 18 00 00                 fiadd   dword ptr L234
 202c  db 15 25 19 00 00                 fist    dword ptr L263
 2032  db 1d 9d 18 00 00                 fistp   dword ptr L229
 2038  d9 05 a1 18 00 00                 fld     dword ptr L230
 203e  d8 25 b5 18 00 00                 fsub    dword ptr L235
 2044  d8 c9                             fmul    st,st(1)
 2046  d8 05 b5 18 00 00                 fadd    dword ptr L235
 204c  d9 15 29 19 00 00                 fst     dword ptr L264
 2052  d9 1d a1 18 00 00                 fstp    dword ptr L230
 2058  d9 05 a5 18 00 00                 fld     dword ptr L231
 205e  d8 25 b9 18 00 00                 fsub    dword ptr L236
 2064  d8 c9                             fmul    st,st(1)
 2066  d8 05 b9 18 00 00                 fadd    dword ptr L236
 206c  d9 15 31 19 00 00                 fst     dword ptr L266
 2072  d9 1d a5 18 00 00                 fstp    dword ptr L231
 2078  d9 05 a9 18 00 00                 fld     dword ptr L232
 207e  d8 25 bd 18 00 00                 fsub    dword ptr L237
 2084  de c9                             fmulp   st(1),st
 2086  d8 05 bd 18 00 00                 fadd    dword ptr L237
 208c  d9 15 35 19 00 00                 fst     dword ptr L267
 2092  d9 1d a9 18 00 00                 fstp    dword ptr L232
 2098  a1 cd 02 00 00    L305            mov     eax,L98
 209d  39 05 9d 18 00 00                 cmp     L229,eax
 20a3  0f 8d aa 00 00 00                 jge     L306
 20a9  39 05 b1 18 00 00                 cmp     L234,eax
 20af  0f 8c 11 03 00 00                 jl      L310
 20b5  a1 cd 02 00 00                    mov     eax,L98
 20ba  2b 05 9d 18 00 00                 sub     eax,L229
 20c0  a3 4d 4d 00 00                    mov     L324,eax
 20c5  db 05 4d 4d 00 00                 fild    dword ptr L324
 20cb  a1 b1 18 00 00                    mov     eax,L234
 20d0  2b 05 9d 18 00 00                 sub     eax,L229
 20d6  a3 4d 4d 00 00                    mov     L324,eax
 20db  da 35 4d 4d 00 00                 fidiv   dword ptr L324
 20e1  a1 cd 02 00 00                    mov     eax,L98
 20e6  a3 9d 18 00 00                    mov     L229,eax
 20eb  db 05 ad 18 00 00                 fild    dword ptr L233
 20f1  da 25 99 18 00 00                 fisub   dword ptr L228
 20f7  d8 c9                             fmul    st,st(1)
 20f9  da 05 99 18 00 00                 fiadd   dword ptr L228
 20ff  db 1d 99 18 00 00                 fistp   dword ptr L228
 2105  d9 05 b5 18 00 00                 fld     dword ptr L235
 210b  d8 25 a1 18 00 00                 fsub    dword ptr L230
 2111  d8 c9                             fmul    st,st(1)
 2113  d8 05 a1 18 00 00                 fadd    dword ptr L230
 2119  d9 1d a1 18 00 00                 fstp    dword ptr L230
 211f  d9 05 b9 18 00 00                 fld     dword ptr L236
 2125  d8 25 a5 18 00 00                 fsub    dword ptr L231
 212b  d8 c9                             fmul    st,st(1)
 212d  d8 05 a5 18 00 00                 fadd    dword ptr L231
 2133  d9 1d a5 18 00 00                 fstp    dword ptr L231
 2139  d9 05 bd 18 00 00                 fld     dword ptr L237
 213f  d8 25 a9 18 00 00                 fsub    dword ptr L232
 2145  de c9                             fmulp   st(1),st
 2147  d8 05 a9 18 00 00                 fadd    dword ptr L232
 214d  d9 1d a9 18 00 00                 fstp    dword ptr L232
 2153  a1 d1 02 00 00    L306            mov     eax,L99
 2158  39 05 b1 18 00 00                 cmp     L234,eax
 215e  0f 8e aa 00 00 00                 jle     L307
 2164  39 05 9d 18 00 00                 cmp     L229,eax
 216a  0f 8f 56 02 00 00                 jg      L310
 2170  a1 d1 02 00 00                    mov     eax,L99
 2175  2b 05 9d 18 00 00                 sub     eax,L229
 217b  a3 4d 4d 00 00                    mov     L324,eax
 2180  db 05 4d 4d 00 00                 fild    dword ptr L324
 2186  a1 b1 18 00 00                    mov     eax,L234
 218b  2b 05 9d 18 00 00                 sub     eax,L229
 2191  a3 4d 4d 00 00                    mov     L324,eax
 2196  da 35 4d 4d 00 00                 fidiv   dword ptr L324
 219c  a1 d1 02 00 00                    mov     eax,L99
 21a1  a3 b1 18 00 00                    mov     L234,eax
 21a6  db 05 ad 18 00 00                 fild    dword ptr L233
 21ac  da 25 99 18 00 00                 fisub   dword ptr L228
 21b2  d8 c9                             fmul    st,st(1)
 21b4  da 05 99 18 00 00                 fiadd   dword ptr L228
 21ba  db 1d ad 18 00 00                 fistp   dword ptr L233
 21c0  d9 05 b5 18 00 00                 fld     dword ptr L235
 21c6  d8 25 a1 18 00 00                 fsub    dword ptr L230
 21cc  d8 c9                             fmul    st,st(1)
 21ce  d8 05 a1 18 00 00                 fadd    dword ptr L230
 21d4  d9 1d b5 18 00 00                 fstp    dword ptr L235
 21da  d9 05 b9 18 00 00                 fld     dword ptr L236
 21e0  d8 25 a5 18 00 00                 fsub    dword ptr L231
 21e6  d8 c9                             fmul    st,st(1)
 21e8  d8 05 a5 18 00 00                 fadd    dword ptr L231
 21ee  d9 1d b9 18 00 00                 fstp    dword ptr L236
 21f4  d9 05 bd 18 00 00                 fld     dword ptr L237
 21fa  d8 25 a9 18 00 00                 fsub    dword ptr L232
 2200  de c9                             fmulp   st(1),st
 2202  d8 05 a9 18 00 00                 fadd    dword ptr L232
 2208  d9 1d bd 18 00 00                 fstp    dword ptr L237
 220e  a1 cd 02 00 00    L307            mov     eax,L98
 2213  39 05 b1 18 00 00                 cmp     L234,eax
 2219  0f 8d aa 00 00 00                 jge     L308
 221f  39 05 9d 18 00 00                 cmp     L229,eax
 2225  0f 8c 9b 01 00 00                 jl      L310
 222b  a1 cd 02 00 00                    mov     eax,L98
 2230  2b 05 b1 18 00 00                 sub     eax,L234
 2236  a3 4d 4d 00 00                    mov     L324,eax
 223b  db 05 4d 4d 00 00                 fild    dword ptr L324
 2241  a1 9d 18 00 00                    mov     eax,L229
 2246  2b 05 b1 18 00 00                 sub     eax,L234
 224c  a3 4d 4d 00 00                    mov     L324,eax
 2251  da 35 4d 4d 00 00                 fidiv   dword ptr L324
 2257  a1 cd 02 00 00                    mov     eax,L98
 225c  a3 b1 18 00 00                    mov     L234,eax
 2261  db 05 99 18 00 00                 fild    dword ptr L228
 2267  da 25 ad 18 00 00                 fisub   dword ptr L233
 226d  d8 c9                             fmul    st,st(1)
 226f  da 05 ad 18 00 00                 fiadd   dword ptr L233
 2275  db 1d ad 18 00 00                 fistp   dword ptr L233
 227b  d9 05 a1 18 00 00                 fld     dword ptr L230
 2281  d8 25 b5 18 00 00                 fsub    dword ptr L235
 2287  d8 c9                             fmul    st,st(1)
 2289  d8 05 b5 18 00 00                 fadd    dword ptr L235
 228f  d9 1d b5 18 00 00                 fstp    dword ptr L235
 2295  d9 05 a5 18 00 00                 fld     dword ptr L231
 229b  d8 25 b9 18 00 00                 fsub    dword ptr L236
 22a1  d8 c9                             fmul    st,st(1)
 22a3  d8 05 b9 18 00 00                 fadd    dword ptr L236
 22a9  d9 1d b9 18 00 00                 fstp    dword ptr L236
 22af  d9 05 a9 18 00 00                 fld     dword ptr L232
 22b5  d8 25 bd 18 00 00                 fsub    dword ptr L237
 22bb  de c9                             fmulp   st(1),st
 22bd  d8 05 bd 18 00 00                 fadd    dword ptr L237
 22c3  d9 1d bd 18 00 00                 fstp    dword ptr L237
 22c9  a1 d1 02 00 00    L308            mov     eax,L99
 22ce  39 05 9d 18 00 00                 cmp     L229,eax
 22d4  0f 8e aa 00 00 00                 jle     L309
 22da  39 05 b1 18 00 00                 cmp     L234,eax
 22e0  0f 8f e0 00 00 00                 jg      L310
 22e6  a1 d1 02 00 00                    mov     eax,L99
 22eb  2b 05 b1 18 00 00                 sub     eax,L234
 22f1  a3 4d 4d 00 00                    mov     L324,eax
 22f6  db 05 4d 4d 00 00                 fild    dword ptr L324
 22fc  a1 9d 18 00 00                    mov     eax,L229
 2301  2b 05 b1 18 00 00                 sub     eax,L234
 2307  a3 4d 4d 00 00                    mov     L324,eax
 230c  da 35 4d 4d 00 00                 fidiv   dword ptr L324
 2312  a1 d1 02 00 00                    mov     eax,L99
 2317  a3 9d 18 00 00                    mov     L229,eax
 231c  db 05 99 18 00 00                 fild    dword ptr L228
 2322  da 25 ad 18 00 00                 fisub   dword ptr L233
 2328  d8 c9                             fmul    st,st(1)
 232a  da 05 ad 18 00 00                 fiadd   dword ptr L233
 2330  db 1d 99 18 00 00                 fistp   dword ptr L228
 2336  d9 05 a1 18 00 00                 fld     dword ptr L230
 233c  d8 25 b5 18 00 00                 fsub    dword ptr L235
 2342  d8 c9                             fmul    st,st(1)
 2344  d8 05 b5 18 00 00                 fadd    dword ptr L235
 234a  d9 1d a1 18 00 00                 fstp    dword ptr L230
 2350  d9 05 a5 18 00 00                 fld     dword ptr L231
 2356  d8 25 b9 18 00 00                 fsub    dword ptr L236
 235c  d8 c9                             fmul    st,st(1)
 235e  d8 05 b9 18 00 00                 fadd    dword ptr L236
 2364  d9 1d a5 18 00 00                 fstp    dword ptr L231
 236a  d9 05 a9 18 00 00                 fld     dword ptr L232
 2370  d8 25 bd 18 00 00                 fsub    dword ptr L237
 2376  de c9                             fmulp   st(1),st
 2378  d8 05 bd 18 00 00                 fadd    dword ptr L237
 237e  d9 1d a9 18 00 00                 fstp    dword ptr L232
 2384  a1 99 18 00 00    L309            mov     eax,L228
 2389  ab                                stosd   
 238a  a1 9d 18 00 00                    mov     eax,L229
 238f  ab                                stosd   
 2390  a1 a1 18 00 00                    mov     eax,L230
 2395  ab                                stosd   
 2396  a1 a5 18 00 00                    mov     eax,L231
 239b  ab                                stosd   
 239c  a1 a9 18 00 00                    mov     eax,L232
 23a1  ab                                stosd   
 23a2  a1 ad 18 00 00                    mov     eax,L233
 23a7  ab                                stosd   
 23a8  a1 b1 18 00 00                    mov     eax,L234
 23ad  ab                                stosd   
 23ae  a1 b5 18 00 00                    mov     eax,L235
 23b3  ab                                stosd   
 23b4  a1 b9 18 00 00                    mov     eax,L236
 23b9  ab                                stosd   
 23ba  a1 bd 18 00 00                    mov     eax,L237
 23bf  ab                                stosd   
 23c0  ff 05 75 18 00 00                 inc     dword ptr L219
 23c6  83 3d 79 18 00 00 
       02                L310            cmp     dword ptr L220,00000002H
 23cd  75 73                             jne     L311
 23cf  c7 05 79 18 00 00 
       00 00 00 00                       mov     dword ptr L220,00000000H
 23d9  a1 c1 18 00 00                    mov     eax,L238
 23de  a3 99 18 00 00                    mov     L228,eax
 23e3  a1 c5 18 00 00                    mov     eax,L239
 23e8  a3 9d 18 00 00                    mov     L229,eax
 23ed  a1 c9 18 00 00                    mov     eax,L240
 23f2  a3 a1 18 00 00                    mov     L230,eax
 23f7  a1 d1 18 00 00                    mov     eax,L242
 23fc  a3 a5 18 00 00                    mov     L231,eax
 2401  a1 d5 18 00 00                    mov     eax,L243
 2406  a3 a9 18 00 00                    mov     L232,eax
 240b  a1 d9 18 00 00                    mov     eax,L244
 2410  a3 ad 18 00 00                    mov     L233,eax
 2415  a1 dd 18 00 00                    mov     eax,L245
 241a  a3 b1 18 00 00                    mov     L234,eax
 241f  a1 e5 18 00 00                    mov     eax,L247
 2424  a3 b5 18 00 00                    mov     L235,eax
 2429  a1 e9 18 00 00                    mov     eax,L248
 242e  a3 b9 18 00 00                    mov     L236,eax
 2433  a1 ed 18 00 00                    mov     eax,L249
 2438  a3 bd 18 00 00                    mov     L237,eax
 243d  e9 de f8 ff ff                    jmp     L301
 2442  83 3d 7d 18 00 00 
       02                L311            cmp     dword ptr L221,00000002H
 2449  75 73                             jne     L312
 244b  c7 05 7d 18 00 00 
       00 00 00 00                       mov     dword ptr L221,00000000H
 2455  a1 09 19 00 00                    mov     eax,L256
 245a  a3 99 18 00 00                    mov     L228,eax
 245f  a1 0d 19 00 00                    mov     eax,L257
 2464  a3 9d 18 00 00                    mov     L229,eax
 2469  a1 15 19 00 00                    mov     eax,L259
 246e  a3 a1 18 00 00                    mov     L230,eax
 2473  a1 19 19 00 00                    mov     eax,L260
 2478  a3 a5 18 00 00                    mov     L231,eax
 247d  a1 1d 19 00 00                    mov     eax,L261
 2482  a3 a9 18 00 00                    mov     L232,eax
 2487  a1 f1 18 00 00                    mov     eax,L250
 248c  a3 ad 18 00 00                    mov     L233,eax
 2491  a1 f5 18 00 00                    mov     eax,L251
 2496  a3 b1 18 00 00                    mov     L234,eax
 249b  a1 f9 18 00 00                    mov     eax,L252
 24a0  a3 b5 18 00 00                    mov     L235,eax
 24a5  a1 01 19 00 00                    mov     eax,L254
 24aa  a3 b9 18 00 00                    mov     L236,eax
 24af  a1 05 19 00 00                    mov     eax,L255
 24b4  a3 bd 18 00 00                    mov     L237,eax
 24b9  e9 da fb ff ff                    jmp     L305
 24be  83 3d 81 18 00 00 
       02                L312            cmp     dword ptr L222,00000002H
 24c5  75 73                             jne     L313
 24c7  c7 05 81 18 00 00 
       00 00 00 00                       mov     dword ptr L222,00000000H
 24d1  a1 39 19 00 00                    mov     eax,L268
 24d6  a3 99 18 00 00                    mov     L228,eax
 24db  a1 3d 19 00 00                    mov     eax,L269
 24e0  a3 9d 18 00 00                    mov     L229,eax
 24e5  a1 45 19 00 00                    mov     eax,L271
 24ea  a3 a1 18 00 00                    mov     L230,eax
 24ef  a1 49 19 00 00                    mov     eax,L272
 24f4  a3 a5 18 00 00                    mov     L231,eax
 24f9  a1 4d 19 00 00                    mov     eax,L273
 24fe  a3 a9 18 00 00                    mov     L232,eax
 2503  a1 21 19 00 00                    mov     eax,L262
 2508  a3 ad 18 00 00                    mov     L233,eax
 250d  a1 25 19 00 00                    mov     eax,L263
 2512  a3 b1 18 00 00                    mov     L234,eax
 2517  a1 29 19 00 00                    mov     eax,L264
 251c  a3 b5 18 00 00                    mov     L235,eax
 2521  a1 31 19 00 00                    mov     eax,L266
 2526  a3 b9 18 00 00                    mov     L236,eax
 252b  a1 35 19 00 00                    mov     eax,L267
 2530  a3 bd 18 00 00                    mov     L237,eax
 2535  e9 5e fb ff ff                    jmp     L305
 253a  83 c6 04          L313            add     esi,00000004H
 253d  49                                dec     ecx
 253e  0f 85 47 f4 ff ff                 jne     L277
 2544  c3                                ret     
 2545  00 00             L314            add     [eax],al
 2547  00 00                             add     [eax],al
 2549  00 00             L315            add     [eax],al
 254b  00 00                             add     [eax],al
 254d  00 00             L316            add     [eax],al
 254f  00 00                             add     [eax],al
 2551  00 00             L317            add     [eax],al
 2553  00 00                             add     [eax],al
 2555  00 00                             add     [eax],al
 2557  00 00                             add     [eax],al
 2559  00 00                             add     [eax],al
 255b  00 00                             add     [eax],al
 255d  00 00                             add     [eax],al
 255f  00 00                             add     [eax],al
 2561  00 00                             add     [eax],al
 2563  00 00                             add     [eax],al
 2565  00 00                             add     [eax],al
 2567  00 00                             add     [eax],al
 2569  00 00                             add     [eax],al
 256b  00 00                             add     [eax],al
 256d  00 00                             add     [eax],al
 256f  00 00                             add     [eax],al
 2571  00 00                             add     [eax],al
 2573  00 00                             add     [eax],al
 2575  00 00                             add     [eax],al
 2577  00 00                             add     [eax],al
 2579  00 00                             add     [eax],al
 257b  00 00                             add     [eax],al
 257d  00 00                             add     [eax],al
 257f  00 00                             add     [eax],al
 2581  00 00                             add     [eax],al
 2583  00 00                             add     [eax],al
 2585  00 00                             add     [eax],al
 2587  00 00                             add     [eax],al
 2589  00 00                             add     [eax],al
 258b  00 00                             add     [eax],al
 258d  00 00                             add     [eax],al
 258f  00 00                             add     [eax],al
 2591  00 00                             add     [eax],al
 2593  00 00                             add     [eax],al
 2595  00 00                             add     [eax],al
 2597  00 00                             add     [eax],al
 2599  00 00                             add     [eax],al
 259b  00 00                             add     [eax],al
 259d  00 00                             add     [eax],al
 259f  00 00                             add     [eax],al
 25a1  00 00                             add     [eax],al
 25a3  00 00                             add     [eax],al
 25a5  00 00                             add     [eax],al
 25a7  00 00                             add     [eax],al
 25a9  00 00                             add     [eax],al
 25ab  00 00                             add     [eax],al
 25ad  00 00                             add     [eax],al
 25af  00 00                             add     [eax],al
 25b1  00 00                             add     [eax],al
 25b3  00 00                             add     [eax],al
 25b5  00 00                             add     [eax],al
 25b7  00 00                             add     [eax],al
 25b9  00 00                             add     [eax],al
 25bb  00 00                             add     [eax],al
 25bd  00 00                             add     [eax],al
 25bf  00 00                             add     [eax],al
 25c1  00 00                             add     [eax],al
 25c3  00 00                             add     [eax],al
 25c5  00 00                             add     [eax],al
 25c7  00 00                             add     [eax],al
 25c9  00 00                             add     [eax],al
 25cb  00 00                             add     [eax],al
 25cd  00 00                             add     [eax],al
 25cf  00 00                             add     [eax],al
 25d1  00 00                             add     [eax],al
 25d3  00 00                             add     [eax],al
 25d5  00 00                             add     [eax],al
 25d7  00 00                             add     [eax],al
 25d9  00 00                             add     [eax],al
 25db  00 00                             add     [eax],al
 25dd  00 00                             add     [eax],al
 25df  00 00                             add     [eax],al
 25e1  00 00                             add     [eax],al
 25e3  00 00                             add     [eax],al
 25e5  00 00                             add     [eax],al
 25e7  00 00                             add     [eax],al
 25e9  00 00                             add     [eax],al
 25eb  00 00                             add     [eax],al
 25ed  00 00                             add     [eax],al
 25ef  00 00                             add     [eax],al
 25f1  00 00                             add     [eax],al
 25f3  00 00                             add     [eax],al
 25f5  00 00                             add     [eax],al
 25f7  00 00                             add     [eax],al
 25f9  00 00                             add     [eax],al
 25fb  00 00                             add     [eax],al
 25fd  00 00                             add     [eax],al
 25ff  00 00                             add     [eax],al
 2601  00 00                             add     [eax],al
 2603  00 00                             add     [eax],al
 2605  00 00                             add     [eax],al
 2607  00 00                             add     [eax],al
 2609  00 00                             add     [eax],al
 260b  00 00                             add     [eax],al
 260d  00 00                             add     [eax],al
 260f  00 00                             add     [eax],al
 2611  00 00                             add     [eax],al
 2613  00 00                             add     [eax],al
 2615  00 00                             add     [eax],al
 2617  00 00                             add     [eax],al
 2619  00 00                             add     [eax],al
 261b  00 00                             add     [eax],al
 261d  00 00                             add     [eax],al
 261f  00 00                             add     [eax],al
 2621  00 00                             add     [eax],al
 2623  00 00                             add     [eax],al
 2625  00 00                             add     [eax],al
 2627  00 00                             add     [eax],al
 2629  00 00                             add     [eax],al
 262b  00 00                             add     [eax],al
 262d  00 00                             add     [eax],al
 262f  00 00                             add     [eax],al
 2631  00 00                             add     [eax],al
 2633  00 00                             add     [eax],al
 2635  00 00                             add     [eax],al
 2637  00 00                             add     [eax],al
 2639  00 00                             add     [eax],al
 263b  00 00                             add     [eax],al
 263d  00 00                             add     [eax],al
 263f  00 00                             add     [eax],al
 2641  00 00                             add     [eax],al
 2643  00 00                             add     [eax],al
 2645  00 00                             add     [eax],al
 2647  00 00                             add     [eax],al
 2649  00 00                             add     [eax],al
 264b  00 00                             add     [eax],al
 264d  00 00                             add     [eax],al
 264f  00 00                             add     [eax],al
 2651  00 00                             add     [eax],al
 2653  00 00                             add     [eax],al
 2655  00 00                             add     [eax],al
 2657  00 00                             add     [eax],al
 2659  00 00                             add     [eax],al
 265b  00 00                             add     [eax],al
 265d  00 00                             add     [eax],al
 265f  00 00                             add     [eax],al
 2661  00 00                             add     [eax],al
 2663  00 00                             add     [eax],al
 2665  00 00                             add     [eax],al
 2667  00 00                             add     [eax],al
 2669  00 00                             add     [eax],al
 266b  00 00                             add     [eax],al
 266d  00 00                             add     [eax],al
 266f  00 00                             add     [eax],al
 2671  00 00                             add     [eax],al
 2673  00 00                             add     [eax],al
 2675  00 00                             add     [eax],al
 2677  00 00                             add     [eax],al
 2679  00 00                             add     [eax],al
 267b  00 00                             add     [eax],al
 267d  00 00                             add     [eax],al
 267f  00 00                             add     [eax],al
 2681  00 00                             add     [eax],al
 2683  00 00                             add     [eax],al
 2685  00 00                             add     [eax],al
 2687  00 00                             add     [eax],al
 2689  00 00                             add     [eax],al
 268b  00 00                             add     [eax],al
 268d  00 00                             add     [eax],al
 268f  00 00                             add     [eax],al
 2691  00 00                             add     [eax],al
 2693  00 00                             add     [eax],al
 2695  00 00                             add     [eax],al
 2697  00 00                             add     [eax],al
 2699  00 00                             add     [eax],al
 269b  00 00                             add     [eax],al
 269d  00 00                             add     [eax],al
 269f  00 00                             add     [eax],al
 26a1  00 00                             add     [eax],al
 26a3  00 00                             add     [eax],al
 26a5  00 00                             add     [eax],al
 26a7  00 00                             add     [eax],al
 26a9  00 00                             add     [eax],al
 26ab  00 00                             add     [eax],al
 26ad  00 00                             add     [eax],al
 26af  00 00                             add     [eax],al
 26b1  00 00                             add     [eax],al
 26b3  00 00                             add     [eax],al
 26b5  00 00                             add     [eax],al
 26b7  00 00                             add     [eax],al
 26b9  00 00                             add     [eax],al
 26bb  00 00                             add     [eax],al
 26bd  00 00                             add     [eax],al
 26bf  00 00                             add     [eax],al
 26c1  00 00                             add     [eax],al
 26c3  00 00                             add     [eax],al
 26c5  00 00                             add     [eax],al
 26c7  00 00                             add     [eax],al
 26c9  00 00                             add     [eax],al
 26cb  00 00                             add     [eax],al
 26cd  00 00                             add     [eax],al
 26cf  00 00                             add     [eax],al
 26d1  00 00                             add     [eax],al
 26d3  00 00                             add     [eax],al
 26d5  00 00                             add     [eax],al
 26d7  00 00                             add     [eax],al
 26d9  00 00                             add     [eax],al
 26db  00 00                             add     [eax],al
 26dd  00 00                             add     [eax],al
 26df  00 00                             add     [eax],al
 26e1  00 00                             add     [eax],al
 26e3  00 00                             add     [eax],al
 26e5  00 00                             add     [eax],al
 26e7  00 00                             add     [eax],al
 26e9  00 00                             add     [eax],al
 26eb  00 00                             add     [eax],al
 26ed  00 00                             add     [eax],al
 26ef  00 00                             add     [eax],al
 26f1  00 00                             add     [eax],al
 26f3  00 00                             add     [eax],al
 26f5  00 00                             add     [eax],al
 26f7  00 00                             add     [eax],al
 26f9  00 00                             add     [eax],al
 26fb  00 00                             add     [eax],al
 26fd  00 00                             add     [eax],al
 26ff  00 00                             add     [eax],al
 2701  00 00                             add     [eax],al
 2703  00 00                             add     [eax],al
 2705  00 00                             add     [eax],al
 2707  00 00                             add     [eax],al
 2709  00 00                             add     [eax],al
 270b  00 00                             add     [eax],al
 270d  00 00                             add     [eax],al
 270f  00 00                             add     [eax],al
 2711  00 00                             add     [eax],al
 2713  00 00                             add     [eax],al
 2715  00 00                             add     [eax],al
 2717  00 00                             add     [eax],al
 2719  00 00                             add     [eax],al
 271b  00 00                             add     [eax],al
 271d  00 00                             add     [eax],al
 271f  00 00                             add     [eax],al
 2721  00 00                             add     [eax],al
 2723  00 00                             add     [eax],al
 2725  00 00                             add     [eax],al
 2727  00 00                             add     [eax],al
 2729  00 00                             add     [eax],al
 272b  00 00                             add     [eax],al
 272d  00 00                             add     [eax],al
 272f  00 00                             add     [eax],al
 2731  00 00                             add     [eax],al
 2733  00 00                             add     [eax],al
 2735  00 00                             add     [eax],al
 2737  00 00                             add     [eax],al
 2739  00 00                             add     [eax],al
 273b  00 00                             add     [eax],al
 273d  00 00                             add     [eax],al
 273f  00 00                             add     [eax],al
 2741  00 00                             add     [eax],al
 2743  00 00                             add     [eax],al
 2745  00 00                             add     [eax],al
 2747  00 00                             add     [eax],al
 2749  00 00                             add     [eax],al
 274b  00 00                             add     [eax],al
 274d  00 00                             add     [eax],al
 274f  00 00                             add     [eax],al
 2751  00 00                             add     [eax],al
 2753  00 00                             add     [eax],al
 2755  00 00                             add     [eax],al
 2757  00 00                             add     [eax],al
 2759  00 00                             add     [eax],al
 275b  00 00                             add     [eax],al
 275d  00 00                             add     [eax],al
 275f  00 00                             add     [eax],al
 2761  00 00                             add     [eax],al
 2763  00 00                             add     [eax],al
 2765  00 00                             add     [eax],al
 2767  00 00                             add     [eax],al
 2769  00 00                             add     [eax],al
 276b  00 00                             add     [eax],al
 276d  00 00                             add     [eax],al
 276f  00 00                             add     [eax],al
 2771  00 00                             add     [eax],al
 2773  00 00                             add     [eax],al
 2775  00 00                             add     [eax],al
 2777  00 00                             add     [eax],al
 2779  00 00                             add     [eax],al
 277b  00 00                             add     [eax],al
 277d  00 00                             add     [eax],al
 277f  00 00                             add     [eax],al
 2781  00 00                             add     [eax],al
 2783  00 00                             add     [eax],al
 2785  00 00                             add     [eax],al
 2787  00 00                             add     [eax],al
 2789  00 00                             add     [eax],al
 278b  00 00                             add     [eax],al
 278d  00 00                             add     [eax],al
 278f  00 00                             add     [eax],al
 2791  00 00                             add     [eax],al
 2793  00 00                             add     [eax],al
 2795  00 00                             add     [eax],al
 2797  00 00                             add     [eax],al
 2799  00 00                             add     [eax],al
 279b  00 00                             add     [eax],al
 279d  00 00                             add     [eax],al
 279f  00 00                             add     [eax],al
 27a1  00 00                             add     [eax],al
 27a3  00 00                             add     [eax],al
 27a5  00 00                             add     [eax],al
 27a7  00 00                             add     [eax],al
 27a9  00 00                             add     [eax],al
 27ab  00 00                             add     [eax],al
 27ad  00 00                             add     [eax],al
 27af  00 00                             add     [eax],al
 27b1  00 00                             add     [eax],al
 27b3  00 00                             add     [eax],al
 27b5  00 00                             add     [eax],al
 27b7  00 00                             add     [eax],al
 27b9  00 00                             add     [eax],al
 27bb  00 00                             add     [eax],al
 27bd  00 00                             add     [eax],al
 27bf  00 00                             add     [eax],al
 27c1  00 00                             add     [eax],al
 27c3  00 00                             add     [eax],al
 27c5  00 00                             add     [eax],al
 27c7  00 00                             add     [eax],al
 27c9  00 00                             add     [eax],al
 27cb  00 00                             add     [eax],al
 27cd  00 00                             add     [eax],al
 27cf  00 00                             add     [eax],al
 27d1  00 00                             add     [eax],al
 27d3  00 00                             add     [eax],al
 27d5  00 00                             add     [eax],al
 27d7  00 00                             add     [eax],al
 27d9  00 00                             add     [eax],al
 27db  00 00                             add     [eax],al
 27dd  00 00                             add     [eax],al
 27df  00 00                             add     [eax],al
 27e1  00 00                             add     [eax],al
 27e3  00 00                             add     [eax],al
 27e5  00 00                             add     [eax],al
 27e7  00 00                             add     [eax],al
 27e9  00 00                             add     [eax],al
 27eb  00 00                             add     [eax],al
 27ed  00 00                             add     [eax],al
 27ef  00 00                             add     [eax],al
 27f1  00 00                             add     [eax],al
 27f3  00 00                             add     [eax],al
 27f5  00 00                             add     [eax],al
 27f7  00 00                             add     [eax],al
 27f9  00 00                             add     [eax],al
 27fb  00 00                             add     [eax],al
 27fd  00 00                             add     [eax],al
 27ff  00 00                             add     [eax],al
 2801  00 00                             add     [eax],al
 2803  00 00                             add     [eax],al
 2805  00 00                             add     [eax],al
 2807  00 00                             add     [eax],al
 2809  00 00                             add     [eax],al
 280b  00 00                             add     [eax],al
 280d  00 00                             add     [eax],al
 280f  00 00                             add     [eax],al
 2811  00 00                             add     [eax],al
 2813  00 00                             add     [eax],al
 2815  00 00                             add     [eax],al
 2817  00 00                             add     [eax],al
 2819  00 00                             add     [eax],al
 281b  00 00                             add     [eax],al
 281d  00 00                             add     [eax],al
 281f  00 00                             add     [eax],al
 2821  00 00                             add     [eax],al
 2823  00 00                             add     [eax],al
 2825  00 00                             add     [eax],al
 2827  00 00                             add     [eax],al
 2829  00 00                             add     [eax],al
 282b  00 00                             add     [eax],al
 282d  00 00                             add     [eax],al
 282f  00 00                             add     [eax],al
 2831  00 00                             add     [eax],al
 2833  00 00                             add     [eax],al
 2835  00 00                             add     [eax],al
 2837  00 00                             add     [eax],al
 2839  00 00                             add     [eax],al
 283b  00 00                             add     [eax],al
 283d  00 00                             add     [eax],al
 283f  00 00                             add     [eax],al
 2841  00 00                             add     [eax],al
 2843  00 00                             add     [eax],al
 2845  00 00                             add     [eax],al
 2847  00 00                             add     [eax],al
 2849  00 00                             add     [eax],al
 284b  00 00                             add     [eax],al
 284d  00 00                             add     [eax],al
 284f  00 00                             add     [eax],al
 2851  00 00                             add     [eax],al
 2853  00 00                             add     [eax],al
 2855  00 00                             add     [eax],al
 2857  00 00                             add     [eax],al
 2859  00 00                             add     [eax],al
 285b  00 00                             add     [eax],al
 285d  00 00                             add     [eax],al
 285f  00 00                             add     [eax],al
 2861  00 00                             add     [eax],al
 2863  00 00                             add     [eax],al
 2865  00 00                             add     [eax],al
 2867  00 00                             add     [eax],al
 2869  00 00                             add     [eax],al
 286b  00 00                             add     [eax],al
 286d  00 00                             add     [eax],al
 286f  00 00                             add     [eax],al
 2871  00 00                             add     [eax],al
 2873  00 00                             add     [eax],al
 2875  00 00                             add     [eax],al
 2877  00 00                             add     [eax],al
 2879  00 00                             add     [eax],al
 287b  00 00                             add     [eax],al
 287d  00 00                             add     [eax],al
 287f  00 00                             add     [eax],al
 2881  00 00                             add     [eax],al
 2883  00 00                             add     [eax],al
 2885  00 00                             add     [eax],al
 2887  00 00                             add     [eax],al
 2889  00 00                             add     [eax],al
 288b  00 00                             add     [eax],al
 288d  00 00                             add     [eax],al
 288f  00 00                             add     [eax],al
 2891  00 00                             add     [eax],al
 2893  00 00                             add     [eax],al
 2895  00 00                             add     [eax],al
 2897  00 00                             add     [eax],al
 2899  00 00                             add     [eax],al
 289b  00 00                             add     [eax],al
 289d  00 00                             add     [eax],al
 289f  00 00                             add     [eax],al
 28a1  00 00                             add     [eax],al
 28a3  00 00                             add     [eax],al
 28a5  00 00                             add     [eax],al
 28a7  00 00                             add     [eax],al
 28a9  00 00                             add     [eax],al
 28ab  00 00                             add     [eax],al
 28ad  00 00                             add     [eax],al
 28af  00 00                             add     [eax],al
 28b1  00 00                             add     [eax],al
 28b3  00 00                             add     [eax],al
 28b5  00 00                             add     [eax],al
 28b7  00 00                             add     [eax],al
 28b9  00 00                             add     [eax],al
 28bb  00 00                             add     [eax],al
 28bd  00 00                             add     [eax],al
 28bf  00 00                             add     [eax],al
 28c1  00 00                             add     [eax],al
 28c3  00 00                             add     [eax],al
 28c5  00 00                             add     [eax],al
 28c7  00 00                             add     [eax],al
 28c9  00 00                             add     [eax],al
 28cb  00 00                             add     [eax],al
 28cd  00 00                             add     [eax],al
 28cf  00 00                             add     [eax],al
 28d1  00 00                             add     [eax],al
 28d3  00 00                             add     [eax],al
 28d5  00 00                             add     [eax],al
 28d7  00 00                             add     [eax],al
 28d9  00 00                             add     [eax],al
 28db  00 00                             add     [eax],al
 28dd  00 00                             add     [eax],al
 28df  00 00                             add     [eax],al
 28e1  00 00                             add     [eax],al
 28e3  00 00                             add     [eax],al
 28e5  00 00                             add     [eax],al
 28e7  00 00                             add     [eax],al
 28e9  00 00                             add     [eax],al
 28eb  00 00                             add     [eax],al
 28ed  00 00                             add     [eax],al
 28ef  00 00                             add     [eax],al
 28f1  00 00                             add     [eax],al
 28f3  00 00                             add     [eax],al
 28f5  00 00                             add     [eax],al
 28f7  00 00                             add     [eax],al
 28f9  00 00                             add     [eax],al
 28fb  00 00                             add     [eax],al
 28fd  00 00                             add     [eax],al
 28ff  00 00                             add     [eax],al
 2901  00 00                             add     [eax],al
 2903  00 00                             add     [eax],al
 2905  00 00                             add     [eax],al
 2907  00 00                             add     [eax],al
 2909  00 00                             add     [eax],al
 290b  00 00                             add     [eax],al
 290d  00 00                             add     [eax],al
 290f  00 00                             add     [eax],al
 2911  00 00                             add     [eax],al
 2913  00 00                             add     [eax],al
 2915  00 00                             add     [eax],al
 2917  00 00                             add     [eax],al
 2919  00 00                             add     [eax],al
 291b  00 00                             add     [eax],al
 291d  00 00                             add     [eax],al
 291f  00 00                             add     [eax],al
 2921  00 00                             add     [eax],al
 2923  00 00                             add     [eax],al
 2925  00 00                             add     [eax],al
 2927  00 00                             add     [eax],al
 2929  00 00                             add     [eax],al
 292b  00 00                             add     [eax],al
 292d  00 00                             add     [eax],al
 292f  00 00                             add     [eax],al
 2931  00 00                             add     [eax],al
 2933  00 00                             add     [eax],al
 2935  00 00                             add     [eax],al
 2937  00 00                             add     [eax],al
 2939  00 00                             add     [eax],al
 293b  00 00                             add     [eax],al
 293d  00 00                             add     [eax],al
 293f  00 00                             add     [eax],al
 2941  00 00                             add     [eax],al
 2943  00 00                             add     [eax],al
 2945  00 00                             add     [eax],al
 2947  00 00                             add     [eax],al
 2949  00 00                             add     [eax],al
 294b  00 00                             add     [eax],al
 294d  00 00                             add     [eax],al
 294f  00 00                             add     [eax],al
 2951  00 00                             add     [eax],al
 2953  00 00                             add     [eax],al
 2955  00 00                             add     [eax],al
 2957  00 00                             add     [eax],al
 2959  00 00                             add     [eax],al
 295b  00 00                             add     [eax],al
 295d  00 00                             add     [eax],al
 295f  00 00                             add     [eax],al
 2961  00 00                             add     [eax],al
 2963  00 00                             add     [eax],al
 2965  00 00                             add     [eax],al
 2967  00 00                             add     [eax],al
 2969  00 00                             add     [eax],al
 296b  00 00                             add     [eax],al
 296d  00 00                             add     [eax],al
 296f  00 00                             add     [eax],al
 2971  00 00                             add     [eax],al
 2973  00 00                             add     [eax],al
 2975  00 00                             add     [eax],al
 2977  00 00                             add     [eax],al
 2979  00 00                             add     [eax],al
 297b  00 00                             add     [eax],al
 297d  00 00                             add     [eax],al
 297f  00 00                             add     [eax],al
 2981  00 00                             add     [eax],al
 2983  00 00                             add     [eax],al
 2985  00 00                             add     [eax],al
 2987  00 00                             add     [eax],al
 2989  00 00                             add     [eax],al
 298b  00 00                             add     [eax],al
 298d  00 00                             add     [eax],al
 298f  00 00                             add     [eax],al
 2991  00 00                             add     [eax],al
 2993  00 00                             add     [eax],al
 2995  00 00                             add     [eax],al
 2997  00 00                             add     [eax],al
 2999  00 00                             add     [eax],al
 299b  00 00                             add     [eax],al
 299d  00 00                             add     [eax],al
 299f  00 00                             add     [eax],al
 29a1  00 00                             add     [eax],al
 29a3  00 00                             add     [eax],al
 29a5  00 00                             add     [eax],al
 29a7  00 00                             add     [eax],al
 29a9  00 00                             add     [eax],al
 29ab  00 00                             add     [eax],al
 29ad  00 00                             add     [eax],al
 29af  00 00                             add     [eax],al
 29b1  00 00                             add     [eax],al
 29b3  00 00                             add     [eax],al
 29b5  00 00                             add     [eax],al
 29b7  00 00                             add     [eax],al
 29b9  00 00                             add     [eax],al
 29bb  00 00                             add     [eax],al
 29bd  00 00                             add     [eax],al
 29bf  00 00                             add     [eax],al
 29c1  00 00                             add     [eax],al
 29c3  00 00                             add     [eax],al
 29c5  00 00                             add     [eax],al
 29c7  00 00                             add     [eax],al
 29c9  00 00                             add     [eax],al
 29cb  00 00                             add     [eax],al
 29cd  00 00                             add     [eax],al
 29cf  00 00                             add     [eax],al
 29d1  00 00                             add     [eax],al
 29d3  00 00                             add     [eax],al
 29d5  00 00                             add     [eax],al
 29d7  00 00                             add     [eax],al
 29d9  00 00                             add     [eax],al
 29db  00 00                             add     [eax],al
 29dd  00 00                             add     [eax],al
 29df  00 00                             add     [eax],al
 29e1  00 00                             add     [eax],al
 29e3  00 00                             add     [eax],al
 29e5  00 00                             add     [eax],al
 29e7  00 00                             add     [eax],al
 29e9  00 00                             add     [eax],al
 29eb  00 00                             add     [eax],al
 29ed  00 00                             add     [eax],al
 29ef  00 00                             add     [eax],al
 29f1  00 00                             add     [eax],al
 29f3  00 00                             add     [eax],al
 29f5  00 00                             add     [eax],al
 29f7  00 00                             add     [eax],al
 29f9  00 00                             add     [eax],al
 29fb  00 00                             add     [eax],al
 29fd  00 00                             add     [eax],al
 29ff  00 00                             add     [eax],al
 2a01  00 00                             add     [eax],al
 2a03  00 00                             add     [eax],al
 2a05  00 00                             add     [eax],al
 2a07  00 00                             add     [eax],al
 2a09  00 00                             add     [eax],al
 2a0b  00 00                             add     [eax],al
 2a0d  00 00                             add     [eax],al
 2a0f  00 00                             add     [eax],al
 2a11  00 00                             add     [eax],al
 2a13  00 00                             add     [eax],al
 2a15  00 00                             add     [eax],al
 2a17  00 00                             add     [eax],al
 2a19  00 00                             add     [eax],al
 2a1b  00 00                             add     [eax],al
 2a1d  00 00                             add     [eax],al
 2a1f  00 00                             add     [eax],al
 2a21  00 00                             add     [eax],al
 2a23  00 00                             add     [eax],al
 2a25  00 00                             add     [eax],al
 2a27  00 00                             add     [eax],al
 2a29  00 00                             add     [eax],al
 2a2b  00 00                             add     [eax],al
 2a2d  00 00                             add     [eax],al
 2a2f  00 00                             add     [eax],al
 2a31  00 00                             add     [eax],al
 2a33  00 00                             add     [eax],al
 2a35  00 00                             add     [eax],al
 2a37  00 00                             add     [eax],al
 2a39  00 00                             add     [eax],al
 2a3b  00 00                             add     [eax],al
 2a3d  00 00                             add     [eax],al
 2a3f  00 00                             add     [eax],al
 2a41  00 00                             add     [eax],al
 2a43  00 00                             add     [eax],al
 2a45  00 00                             add     [eax],al
 2a47  00 00                             add     [eax],al
 2a49  00 00                             add     [eax],al
 2a4b  00 00                             add     [eax],al
 2a4d  00 00                             add     [eax],al
 2a4f  00 00                             add     [eax],al
 2a51  00 00                             add     [eax],al
 2a53  00 00                             add     [eax],al
 2a55  00 00                             add     [eax],al
 2a57  00 00                             add     [eax],al
 2a59  00 00                             add     [eax],al
 2a5b  00 00                             add     [eax],al
 2a5d  00 00                             add     [eax],al
 2a5f  00 00                             add     [eax],al
 2a61  00 00                             add     [eax],al
 2a63  00 00                             add     [eax],al
 2a65  00 00                             add     [eax],al
 2a67  00 00                             add     [eax],al
 2a69  00 00                             add     [eax],al
 2a6b  00 00                             add     [eax],al
 2a6d  00 00                             add     [eax],al
 2a6f  00 00                             add     [eax],al
 2a71  00 00                             add     [eax],al
 2a73  00 00                             add     [eax],al
 2a75  00 00                             add     [eax],al
 2a77  00 00                             add     [eax],al
 2a79  00 00                             add     [eax],al
 2a7b  00 00                             add     [eax],al
 2a7d  00 00                             add     [eax],al
 2a7f  00 00                             add     [eax],al
 2a81  00 00                             add     [eax],al
 2a83  00 00                             add     [eax],al
 2a85  00 00                             add     [eax],al
 2a87  00 00                             add     [eax],al
 2a89  00 00                             add     [eax],al
 2a8b  00 00                             add     [eax],al
 2a8d  00 00                             add     [eax],al
 2a8f  00 00                             add     [eax],al
 2a91  00 00                             add     [eax],al
 2a93  00 00                             add     [eax],al
 2a95  00 00                             add     [eax],al
 2a97  00 00                             add     [eax],al
 2a99  00 00                             add     [eax],al
 2a9b  00 00                             add     [eax],al
 2a9d  00 00                             add     [eax],al
 2a9f  00 00                             add     [eax],al
 2aa1  00 00                             add     [eax],al
 2aa3  00 00                             add     [eax],al
 2aa5  00 00                             add     [eax],al
 2aa7  00 00                             add     [eax],al
 2aa9  00 00                             add     [eax],al
 2aab  00 00                             add     [eax],al
 2aad  00 00                             add     [eax],al
 2aaf  00 00                             add     [eax],al
 2ab1  00 00                             add     [eax],al
 2ab3  00 00                             add     [eax],al
 2ab5  00 00                             add     [eax],al
 2ab7  00 00                             add     [eax],al
 2ab9  00 00                             add     [eax],al
 2abb  00 00                             add     [eax],al
 2abd  00 00                             add     [eax],al
 2abf  00 00                             add     [eax],al
 2ac1  00 00                             add     [eax],al
 2ac3  00 00                             add     [eax],al
 2ac5  00 00                             add     [eax],al
 2ac7  00 00                             add     [eax],al
 2ac9  00 00                             add     [eax],al
 2acb  00 00                             add     [eax],al
 2acd  00 00                             add     [eax],al
 2acf  00 00                             add     [eax],al
 2ad1  00 00                             add     [eax],al
 2ad3  00 00                             add     [eax],al
 2ad5  00 00                             add     [eax],al
 2ad7  00 00                             add     [eax],al
 2ad9  00 00                             add     [eax],al
 2adb  00 00                             add     [eax],al
 2add  00 00                             add     [eax],al
 2adf  00 00                             add     [eax],al
 2ae1  00 00                             add     [eax],al
 2ae3  00 00                             add     [eax],al
 2ae5  00 00                             add     [eax],al
 2ae7  00 00                             add     [eax],al
 2ae9  00 00                             add     [eax],al
 2aeb  00 00                             add     [eax],al
 2aed  00 00                             add     [eax],al
 2aef  00 00                             add     [eax],al
 2af1  00 00                             add     [eax],al
 2af3  00 00                             add     [eax],al
 2af5  00 00                             add     [eax],al
 2af7  00 00                             add     [eax],al
 2af9  00 00                             add     [eax],al
 2afb  00 00                             add     [eax],al
 2afd  00 00                             add     [eax],al
 2aff  00 00                             add     [eax],al
 2b01  00 00                             add     [eax],al
 2b03  00 00                             add     [eax],al
 2b05  00 00                             add     [eax],al
 2b07  00 00                             add     [eax],al
 2b09  00 00                             add     [eax],al
 2b0b  00 00                             add     [eax],al
 2b0d  00 00                             add     [eax],al
 2b0f  00 00                             add     [eax],al
 2b11  00 00                             add     [eax],al
 2b13  00 00                             add     [eax],al
 2b15  00 00                             add     [eax],al
 2b17  00 00                             add     [eax],al
 2b19  00 00                             add     [eax],al
 2b1b  00 00                             add     [eax],al
 2b1d  00 00                             add     [eax],al
 2b1f  00 00                             add     [eax],al
 2b21  00 00                             add     [eax],al
 2b23  00 00                             add     [eax],al
 2b25  00 00                             add     [eax],al
 2b27  00 00                             add     [eax],al
 2b29  00 00                             add     [eax],al
 2b2b  00 00                             add     [eax],al
 2b2d  00 00                             add     [eax],al
 2b2f  00 00                             add     [eax],al
 2b31  00 00                             add     [eax],al
 2b33  00 00                             add     [eax],al
 2b35  00 00                             add     [eax],al
 2b37  00 00                             add     [eax],al
 2b39  00 00                             add     [eax],al
 2b3b  00 00                             add     [eax],al
 2b3d  00 00                             add     [eax],al
 2b3f  00 00                             add     [eax],al
 2b41  00 00                             add     [eax],al
 2b43  00 00                             add     [eax],al
 2b45  00 00                             add     [eax],al
 2b47  00 00                             add     [eax],al
 2b49  00 00                             add     [eax],al
 2b4b  00 00                             add     [eax],al
 2b4d  00 00                             add     [eax],al
 2b4f  00 00                             add     [eax],al
 2b51  00 00                             add     [eax],al
 2b53  00 00                             add     [eax],al
 2b55  00 00                             add     [eax],al
 2b57  00 00                             add     [eax],al
 2b59  00 00                             add     [eax],al
 2b5b  00 00                             add     [eax],al
 2b5d  00 00                             add     [eax],al
 2b5f  00 00                             add     [eax],al
 2b61  00 00                             add     [eax],al
 2b63  00 00                             add     [eax],al
 2b65  00 00                             add     [eax],al
 2b67  00 00                             add     [eax],al
 2b69  00 00                             add     [eax],al
 2b6b  00 00                             add     [eax],al
 2b6d  00 00                             add     [eax],al
 2b6f  00 00                             add     [eax],al
 2b71  00 00                             add     [eax],al
 2b73  00 00                             add     [eax],al
 2b75  00 00                             add     [eax],al
 2b77  00 00                             add     [eax],al
 2b79  00 00                             add     [eax],al
 2b7b  00 00                             add     [eax],al
 2b7d  00 00                             add     [eax],al
 2b7f  00 00                             add     [eax],al
 2b81  00 00                             add     [eax],al
 2b83  00 00                             add     [eax],al
 2b85  00 00                             add     [eax],al
 2b87  00 00                             add     [eax],al
 2b89  00 00                             add     [eax],al
 2b8b  00 00                             add     [eax],al
 2b8d  00 00                             add     [eax],al
 2b8f  00 00                             add     [eax],al
 2b91  00 00                             add     [eax],al
 2b93  00 00                             add     [eax],al
 2b95  00 00                             add     [eax],al
 2b97  00 00                             add     [eax],al
 2b99  00 00                             add     [eax],al
 2b9b  00 00                             add     [eax],al
 2b9d  00 00                             add     [eax],al
 2b9f  00 00                             add     [eax],al
 2ba1  00 00                             add     [eax],al
 2ba3  00 00                             add     [eax],al
 2ba5  00 00                             add     [eax],al
 2ba7  00 00                             add     [eax],al
 2ba9  00 00                             add     [eax],al
 2bab  00 00                             add     [eax],al
 2bad  00 00                             add     [eax],al
 2baf  00 00                             add     [eax],al
 2bb1  00 00                             add     [eax],al
 2bb3  00 00                             add     [eax],al
 2bb5  00 00                             add     [eax],al
 2bb7  00 00                             add     [eax],al
 2bb9  00 00                             add     [eax],al
 2bbb  00 00                             add     [eax],al
 2bbd  00 00                             add     [eax],al
 2bbf  00 00                             add     [eax],al
 2bc1  00 00                             add     [eax],al
 2bc3  00 00                             add     [eax],al
 2bc5  00 00                             add     [eax],al
 2bc7  00 00                             add     [eax],al
 2bc9  00 00                             add     [eax],al
 2bcb  00 00                             add     [eax],al
 2bcd  00 00                             add     [eax],al
 2bcf  00 00                             add     [eax],al
 2bd1  00 00                             add     [eax],al
 2bd3  00 00                             add     [eax],al
 2bd5  00 00                             add     [eax],al
 2bd7  00 00                             add     [eax],al
 2bd9  00 00                             add     [eax],al
 2bdb  00 00                             add     [eax],al
 2bdd  00 00                             add     [eax],al
 2bdf  00 00                             add     [eax],al
 2be1  00 00                             add     [eax],al
 2be3  00 00                             add     [eax],al
 2be5  00 00                             add     [eax],al
 2be7  00 00                             add     [eax],al
 2be9  00 00                             add     [eax],al
 2beb  00 00                             add     [eax],al
 2bed  00 00                             add     [eax],al
 2bef  00 00                             add     [eax],al
 2bf1  00 00                             add     [eax],al
 2bf3  00 00                             add     [eax],al
 2bf5  00 00                             add     [eax],al
 2bf7  00 00                             add     [eax],al
 2bf9  00 00                             add     [eax],al
 2bfb  00 00                             add     [eax],al
 2bfd  00 00                             add     [eax],al
 2bff  00 00                             add     [eax],al
 2c01  00 00                             add     [eax],al
 2c03  00 00                             add     [eax],al
 2c05  00 00                             add     [eax],al
 2c07  00 00                             add     [eax],al
 2c09  00 00                             add     [eax],al
 2c0b  00 00                             add     [eax],al
 2c0d  00 00                             add     [eax],al
 2c0f  00 00                             add     [eax],al
 2c11  00 00                             add     [eax],al
 2c13  00 00                             add     [eax],al
 2c15  00 00                             add     [eax],al
 2c17  00 00                             add     [eax],al
 2c19  00 00                             add     [eax],al
 2c1b  00 00                             add     [eax],al
 2c1d  00 00                             add     [eax],al
 2c1f  00 00                             add     [eax],al
 2c21  00 00                             add     [eax],al
 2c23  00 00                             add     [eax],al
 2c25  00 00                             add     [eax],al
 2c27  00 00                             add     [eax],al
 2c29  00 00                             add     [eax],al
 2c2b  00 00                             add     [eax],al
 2c2d  00 00                             add     [eax],al
 2c2f  00 00                             add     [eax],al
 2c31  00 00                             add     [eax],al
 2c33  00 00                             add     [eax],al
 2c35  00 00                             add     [eax],al
 2c37  00 00                             add     [eax],al
 2c39  00 00                             add     [eax],al
 2c3b  00 00                             add     [eax],al
 2c3d  00 00                             add     [eax],al
 2c3f  00 00                             add     [eax],al
 2c41  00 00                             add     [eax],al
 2c43  00 00                             add     [eax],al
 2c45  00 00                             add     [eax],al
 2c47  00 00                             add     [eax],al
 2c49  00 00                             add     [eax],al
 2c4b  00 00                             add     [eax],al
 2c4d  00 00                             add     [eax],al
 2c4f  00 00                             add     [eax],al
 2c51  00 00                             add     [eax],al
 2c53  00 00                             add     [eax],al
 2c55  00 00                             add     [eax],al
 2c57  00 00                             add     [eax],al
 2c59  00 00                             add     [eax],al
 2c5b  00 00                             add     [eax],al
 2c5d  00 00                             add     [eax],al
 2c5f  00 00                             add     [eax],al
 2c61  00 00                             add     [eax],al
 2c63  00 00                             add     [eax],al
 2c65  00 00                             add     [eax],al
 2c67  00 00                             add     [eax],al
 2c69  00 00                             add     [eax],al
 2c6b  00 00                             add     [eax],al
 2c6d  00 00                             add     [eax],al
 2c6f  00 00                             add     [eax],al
 2c71  00 00                             add     [eax],al
 2c73  00 00                             add     [eax],al
 2c75  00 00                             add     [eax],al
 2c77  00 00                             add     [eax],al
 2c79  00 00                             add     [eax],al
 2c7b  00 00                             add     [eax],al
 2c7d  00 00                             add     [eax],al
 2c7f  00 00                             add     [eax],al
 2c81  00 00                             add     [eax],al
 2c83  00 00                             add     [eax],al
 2c85  00 00                             add     [eax],al
 2c87  00 00                             add     [eax],al
 2c89  00 00                             add     [eax],al
 2c8b  00 00                             add     [eax],al
 2c8d  00 00                             add     [eax],al
 2c8f  00 00                             add     [eax],al
 2c91  00 00                             add     [eax],al
 2c93  00 00                             add     [eax],al
 2c95  00 00                             add     [eax],al
 2c97  00 00                             add     [eax],al
 2c99  00 00                             add     [eax],al
 2c9b  00 00                             add     [eax],al
 2c9d  00 00                             add     [eax],al
 2c9f  00 00                             add     [eax],al
 2ca1  00 00                             add     [eax],al
 2ca3  00 00                             add     [eax],al
 2ca5  00 00                             add     [eax],al
 2ca7  00 00                             add     [eax],al
 2ca9  00 00                             add     [eax],al
 2cab  00 00                             add     [eax],al
 2cad  00 00                             add     [eax],al
 2caf  00 00                             add     [eax],al
 2cb1  00 00                             add     [eax],al
 2cb3  00 00                             add     [eax],al
 2cb5  00 00                             add     [eax],al
 2cb7  00 00                             add     [eax],al
 2cb9  00 00                             add     [eax],al
 2cbb  00 00                             add     [eax],al
 2cbd  00 00                             add     [eax],al
 2cbf  00 00                             add     [eax],al
 2cc1  00 00                             add     [eax],al
 2cc3  00 00                             add     [eax],al
 2cc5  00 00                             add     [eax],al
 2cc7  00 00                             add     [eax],al
 2cc9  00 00                             add     [eax],al
 2ccb  00 00                             add     [eax],al
 2ccd  00 00                             add     [eax],al
 2ccf  00 00                             add     [eax],al
 2cd1  00 00                             add     [eax],al
 2cd3  00 00                             add     [eax],al
 2cd5  00 00                             add     [eax],al
 2cd7  00 00                             add     [eax],al
 2cd9  00 00                             add     [eax],al
 2cdb  00 00                             add     [eax],al
 2cdd  00 00                             add     [eax],al
 2cdf  00 00                             add     [eax],al
 2ce1  00 00                             add     [eax],al
 2ce3  00 00                             add     [eax],al
 2ce5  00 00                             add     [eax],al
 2ce7  00 00                             add     [eax],al
 2ce9  00 00                             add     [eax],al
 2ceb  00 00                             add     [eax],al
 2ced  00 00                             add     [eax],al
 2cef  00 00                             add     [eax],al
 2cf1  00 00                             add     [eax],al
 2cf3  00 00                             add     [eax],al
 2cf5  00 00                             add     [eax],al
 2cf7  00 00                             add     [eax],al
 2cf9  00 00                             add     [eax],al
 2cfb  00 00                             add     [eax],al
 2cfd  00 00                             add     [eax],al
 2cff  00 00                             add     [eax],al
 2d01  00 00                             add     [eax],al
 2d03  00 00                             add     [eax],al
 2d05  00 00                             add     [eax],al
 2d07  00 00                             add     [eax],al
 2d09  00 00                             add     [eax],al
 2d0b  00 00                             add     [eax],al
 2d0d  00 00                             add     [eax],al
 2d0f  00 00                             add     [eax],al
 2d11  00 00                             add     [eax],al
 2d13  00 00                             add     [eax],al
 2d15  00 00                             add     [eax],al
 2d17  00 00                             add     [eax],al
 2d19  00 00                             add     [eax],al
 2d1b  00 00                             add     [eax],al
 2d1d  00 00                             add     [eax],al
 2d1f  00 00                             add     [eax],al
 2d21  00 00                             add     [eax],al
 2d23  00 00                             add     [eax],al
 2d25  00 00                             add     [eax],al
 2d27  00 00                             add     [eax],al
 2d29  00 00                             add     [eax],al
 2d2b  00 00                             add     [eax],al
 2d2d  00 00                             add     [eax],al
 2d2f  00 00                             add     [eax],al
 2d31  00 00                             add     [eax],al
 2d33  00 00                             add     [eax],al
 2d35  00 00                             add     [eax],al
 2d37  00 00                             add     [eax],al
 2d39  00 00                             add     [eax],al
 2d3b  00 00                             add     [eax],al
 2d3d  00 00                             add     [eax],al
 2d3f  00 00                             add     [eax],al
 2d41  00 00                             add     [eax],al
 2d43  00 00                             add     [eax],al
 2d45  00 00                             add     [eax],al
 2d47  00 00                             add     [eax],al
 2d49  00 00                             add     [eax],al
 2d4b  00 00                             add     [eax],al
 2d4d  00 00                             add     [eax],al
 2d4f  00 00                             add     [eax],al
 2d51  00 00                             add     [eax],al
 2d53  00 00                             add     [eax],al
 2d55  00 00                             add     [eax],al
 2d57  00 00                             add     [eax],al
 2d59  00 00                             add     [eax],al
 2d5b  00 00                             add     [eax],al
 2d5d  00 00                             add     [eax],al
 2d5f  00 00                             add     [eax],al
 2d61  00 00                             add     [eax],al
 2d63  00 00                             add     [eax],al
 2d65  00 00                             add     [eax],al
 2d67  00 00                             add     [eax],al
 2d69  00 00                             add     [eax],al
 2d6b  00 00                             add     [eax],al
 2d6d  00 00                             add     [eax],al
 2d6f  00 00                             add     [eax],al
 2d71  00 00                             add     [eax],al
 2d73  00 00                             add     [eax],al
 2d75  00 00                             add     [eax],al
 2d77  00 00                             add     [eax],al
 2d79  00 00                             add     [eax],al
 2d7b  00 00                             add     [eax],al
 2d7d  00 00                             add     [eax],al
 2d7f  00 00                             add     [eax],al
 2d81  00 00                             add     [eax],al
 2d83  00 00                             add     [eax],al
 2d85  00 00                             add     [eax],al
 2d87  00 00                             add     [eax],al
 2d89  00 00                             add     [eax],al
 2d8b  00 00                             add     [eax],al
 2d8d  00 00                             add     [eax],al
 2d8f  00 00                             add     [eax],al
 2d91  00 00                             add     [eax],al
 2d93  00 00                             add     [eax],al
 2d95  00 00                             add     [eax],al
 2d97  00 00                             add     [eax],al
 2d99  00 00                             add     [eax],al
 2d9b  00 00                             add     [eax],al
 2d9d  00 00                             add     [eax],al
 2d9f  00 00                             add     [eax],al
 2da1  00 00                             add     [eax],al
 2da3  00 00                             add     [eax],al
 2da5  00 00                             add     [eax],al
 2da7  00 00                             add     [eax],al
 2da9  00 00                             add     [eax],al
 2dab  00 00                             add     [eax],al
 2dad  00 00                             add     [eax],al
 2daf  00 00                             add     [eax],al
 2db1  00 00                             add     [eax],al
 2db3  00 00                             add     [eax],al
 2db5  00 00                             add     [eax],al
 2db7  00 00                             add     [eax],al
 2db9  00 00                             add     [eax],al
 2dbb  00 00                             add     [eax],al
 2dbd  00 00                             add     [eax],al
 2dbf  00 00                             add     [eax],al
 2dc1  00 00                             add     [eax],al
 2dc3  00 00                             add     [eax],al
 2dc5  00 00                             add     [eax],al
 2dc7  00 00                             add     [eax],al
 2dc9  00 00                             add     [eax],al
 2dcb  00 00                             add     [eax],al
 2dcd  00 00                             add     [eax],al
 2dcf  00 00                             add     [eax],al
 2dd1  00 00                             add     [eax],al
 2dd3  00 00                             add     [eax],al
 2dd5  00 00                             add     [eax],al
 2dd7  00 00                             add     [eax],al
 2dd9  00 00                             add     [eax],al
 2ddb  00 00                             add     [eax],al
 2ddd  00 00                             add     [eax],al
 2ddf  00 00                             add     [eax],al
 2de1  00 00                             add     [eax],al
 2de3  00 00                             add     [eax],al
 2de5  00 00                             add     [eax],al
 2de7  00 00                             add     [eax],al
 2de9  00 00                             add     [eax],al
 2deb  00 00                             add     [eax],al
 2ded  00 00                             add     [eax],al
 2def  00 00                             add     [eax],al
 2df1  00 00                             add     [eax],al
 2df3  00 00                             add     [eax],al
 2df5  00 00                             add     [eax],al
 2df7  00 00                             add     [eax],al
 2df9  00 00                             add     [eax],al
 2dfb  00 00                             add     [eax],al
 2dfd  00 00                             add     [eax],al
 2dff  00 00                             add     [eax],al
 2e01  00 00                             add     [eax],al
 2e03  00 00                             add     [eax],al
 2e05  00 00                             add     [eax],al
 2e07  00 00                             add     [eax],al
 2e09  00 00                             add     [eax],al
 2e0b  00 00                             add     [eax],al
 2e0d  00 00                             add     [eax],al
 2e0f  00 00                             add     [eax],al
 2e11  00 00                             add     [eax],al
 2e13  00 00                             add     [eax],al
 2e15  00 00                             add     [eax],al
 2e17  00 00                             add     [eax],al
 2e19  00 00                             add     [eax],al
 2e1b  00 00                             add     [eax],al
 2e1d  00 00                             add     [eax],al
 2e1f  00 00                             add     [eax],al
 2e21  00 00                             add     [eax],al
 2e23  00 00                             add     [eax],al
 2e25  00 00                             add     [eax],al
 2e27  00 00                             add     [eax],al
 2e29  00 00                             add     [eax],al
 2e2b  00 00                             add     [eax],al
 2e2d  00 00                             add     [eax],al
 2e2f  00 00                             add     [eax],al
 2e31  00 00                             add     [eax],al
 2e33  00 00                             add     [eax],al
 2e35  00 00                             add     [eax],al
 2e37  00 00                             add     [eax],al
 2e39  00 00                             add     [eax],al
 2e3b  00 00                             add     [eax],al
 2e3d  00 00                             add     [eax],al
 2e3f  00 00                             add     [eax],al
 2e41  00 00                             add     [eax],al
 2e43  00 00                             add     [eax],al
 2e45  00 00                             add     [eax],al
 2e47  00 00                             add     [eax],al
 2e49  00 00                             add     [eax],al
 2e4b  00 00                             add     [eax],al
 2e4d  00 00                             add     [eax],al
 2e4f  00 00                             add     [eax],al
 2e51  00 00                             add     [eax],al
 2e53  00 00                             add     [eax],al
 2e55  00 00                             add     [eax],al
 2e57  00 00                             add     [eax],al
 2e59  00 00                             add     [eax],al
 2e5b  00 00                             add     [eax],al
 2e5d  00 00                             add     [eax],al
 2e5f  00 00                             add     [eax],al
 2e61  00 00                             add     [eax],al
 2e63  00 00                             add     [eax],al
 2e65  00 00                             add     [eax],al
 2e67  00 00                             add     [eax],al
 2e69  00 00                             add     [eax],al
 2e6b  00 00                             add     [eax],al
 2e6d  00 00                             add     [eax],al
 2e6f  00 00                             add     [eax],al
 2e71  00 00                             add     [eax],al
 2e73  00 00                             add     [eax],al
 2e75  00 00                             add     [eax],al
 2e77  00 00                             add     [eax],al
 2e79  00 00                             add     [eax],al
 2e7b  00 00                             add     [eax],al
 2e7d  00 00                             add     [eax],al
 2e7f  00 00                             add     [eax],al
 2e81  00 00                             add     [eax],al
 2e83  00 00                             add     [eax],al
 2e85  00 00                             add     [eax],al
 2e87  00 00                             add     [eax],al
 2e89  00 00                             add     [eax],al
 2e8b  00 00                             add     [eax],al
 2e8d  00 00                             add     [eax],al
 2e8f  00 00                             add     [eax],al
 2e91  00 00                             add     [eax],al
 2e93  00 00                             add     [eax],al
 2e95  00 00                             add     [eax],al
 2e97  00 00                             add     [eax],al
 2e99  00 00                             add     [eax],al
 2e9b  00 00                             add     [eax],al
 2e9d  00 00                             add     [eax],al
 2e9f  00 00                             add     [eax],al
 2ea1  00 00                             add     [eax],al
 2ea3  00 00                             add     [eax],al
 2ea5  00 00                             add     [eax],al
 2ea7  00 00                             add     [eax],al
 2ea9  00 00                             add     [eax],al
 2eab  00 00                             add     [eax],al
 2ead  00 00                             add     [eax],al
 2eaf  00 00                             add     [eax],al
 2eb1  00 00                             add     [eax],al
 2eb3  00 00                             add     [eax],al
 2eb5  00 00                             add     [eax],al
 2eb7  00 00                             add     [eax],al
 2eb9  00 00                             add     [eax],al
 2ebb  00 00                             add     [eax],al
 2ebd  00 00                             add     [eax],al
 2ebf  00 00                             add     [eax],al
 2ec1  00 00                             add     [eax],al
 2ec3  00 00                             add     [eax],al
 2ec5  00 00                             add     [eax],al
 2ec7  00 00                             add     [eax],al
 2ec9  00 00                             add     [eax],al
 2ecb  00 00                             add     [eax],al
 2ecd  00 00                             add     [eax],al
 2ecf  00 00                             add     [eax],al
 2ed1  00 00                             add     [eax],al
 2ed3  00 00                             add     [eax],al
 2ed5  00 00                             add     [eax],al
 2ed7  00 00                             add     [eax],al
 2ed9  00 00                             add     [eax],al
 2edb  00 00                             add     [eax],al
 2edd  00 00                             add     [eax],al
 2edf  00 00                             add     [eax],al
 2ee1  00 00                             add     [eax],al
 2ee3  00 00                             add     [eax],al
 2ee5  00 00                             add     [eax],al
 2ee7  00 00                             add     [eax],al
 2ee9  00 00                             add     [eax],al
 2eeb  00 00                             add     [eax],al
 2eed  00 00                             add     [eax],al
 2eef  00 00                             add     [eax],al
 2ef1  00 00                             add     [eax],al
 2ef3  00 00                             add     [eax],al
 2ef5  00 00                             add     [eax],al
 2ef7  00 00                             add     [eax],al
 2ef9  00 00                             add     [eax],al
 2efb  00 00                             add     [eax],al
 2efd  00 00                             add     [eax],al
 2eff  00 00                             add     [eax],al
 2f01  00 00                             add     [eax],al
 2f03  00 00                             add     [eax],al
 2f05  00 00                             add     [eax],al
 2f07  00 00                             add     [eax],al
 2f09  00 00                             add     [eax],al
 2f0b  00 00                             add     [eax],al
 2f0d  00 00                             add     [eax],al
 2f0f  00 00                             add     [eax],al
 2f11  00 00                             add     [eax],al
 2f13  00 00                             add     [eax],al
 2f15  00 00                             add     [eax],al
 2f17  00 00                             add     [eax],al
 2f19  00 00                             add     [eax],al
 2f1b  00 00                             add     [eax],al
 2f1d  00 00                             add     [eax],al
 2f1f  00 00                             add     [eax],al
 2f21  00 00                             add     [eax],al
 2f23  00 00                             add     [eax],al
 2f25  00 00                             add     [eax],al
 2f27  00 00                             add     [eax],al
 2f29  00 00                             add     [eax],al
 2f2b  00 00                             add     [eax],al
 2f2d  00 00                             add     [eax],al
 2f2f  00 00                             add     [eax],al
 2f31  00 00                             add     [eax],al
 2f33  00 00                             add     [eax],al
 2f35  00 00                             add     [eax],al
 2f37  00 00                             add     [eax],al
 2f39  00 00                             add     [eax],al
 2f3b  00 00                             add     [eax],al
 2f3d  00 00                             add     [eax],al
 2f3f  00 00                             add     [eax],al
 2f41  00 00                             add     [eax],al
 2f43  00 00                             add     [eax],al
 2f45  00 00                             add     [eax],al
 2f47  00 00                             add     [eax],al
 2f49  00 00                             add     [eax],al
 2f4b  00 00                             add     [eax],al
 2f4d  00 00                             add     [eax],al
 2f4f  00 00                             add     [eax],al
 2f51  00 00                             add     [eax],al
 2f53  00 00                             add     [eax],al
 2f55  00 00                             add     [eax],al
 2f57  00 00                             add     [eax],al
 2f59  00 00                             add     [eax],al
 2f5b  00 00                             add     [eax],al
 2f5d  00 00                             add     [eax],al
 2f5f  00 00                             add     [eax],al
 2f61  00 00                             add     [eax],al
 2f63  00 00                             add     [eax],al
 2f65  00 00                             add     [eax],al
 2f67  00 00                             add     [eax],al
 2f69  00 00                             add     [eax],al
 2f6b  00 00                             add     [eax],al
 2f6d  00 00                             add     [eax],al
 2f6f  00 00                             add     [eax],al
 2f71  00 00                             add     [eax],al
 2f73  00 00                             add     [eax],al
 2f75  00 00                             add     [eax],al
 2f77  00 00                             add     [eax],al
 2f79  00 00                             add     [eax],al
 2f7b  00 00                             add     [eax],al
 2f7d  00 00                             add     [eax],al
 2f7f  00 00                             add     [eax],al
 2f81  00 00                             add     [eax],al
 2f83  00 00                             add     [eax],al
 2f85  00 00                             add     [eax],al
 2f87  00 00                             add     [eax],al
 2f89  00 00                             add     [eax],al
 2f8b  00 00                             add     [eax],al
 2f8d  00 00                             add     [eax],al
 2f8f  00 00                             add     [eax],al
 2f91  00 00                             add     [eax],al
 2f93  00 00                             add     [eax],al
 2f95  00 00                             add     [eax],al
 2f97  00 00                             add     [eax],al
 2f99  00 00                             add     [eax],al
 2f9b  00 00                             add     [eax],al
 2f9d  00 00                             add     [eax],al
 2f9f  00 00                             add     [eax],al
 2fa1  00 00                             add     [eax],al
 2fa3  00 00                             add     [eax],al
 2fa5  00 00                             add     [eax],al
 2fa7  00 00                             add     [eax],al
 2fa9  00 00                             add     [eax],al
 2fab  00 00                             add     [eax],al
 2fad  00 00                             add     [eax],al
 2faf  00 00                             add     [eax],al
 2fb1  00 00                             add     [eax],al
 2fb3  00 00                             add     [eax],al
 2fb5  00 00                             add     [eax],al
 2fb7  00 00                             add     [eax],al
 2fb9  00 00                             add     [eax],al
 2fbb  00 00                             add     [eax],al
 2fbd  00 00                             add     [eax],al
 2fbf  00 00                             add     [eax],al
 2fc1  00 00                             add     [eax],al
 2fc3  00 00                             add     [eax],al
 2fc5  00 00                             add     [eax],al
 2fc7  00 00                             add     [eax],al
 2fc9  00 00                             add     [eax],al
 2fcb  00 00                             add     [eax],al
 2fcd  00 00                             add     [eax],al
 2fcf  00 00                             add     [eax],al
 2fd1  00 00                             add     [eax],al
 2fd3  00 00                             add     [eax],al
 2fd5  00 00                             add     [eax],al
 2fd7  00 00                             add     [eax],al
 2fd9  00 00                             add     [eax],al
 2fdb  00 00                             add     [eax],al
 2fdd  00 00                             add     [eax],al
 2fdf  00 00                             add     [eax],al
 2fe1  00 00                             add     [eax],al
 2fe3  00 00                             add     [eax],al
 2fe5  00 00                             add     [eax],al
 2fe7  00 00                             add     [eax],al
 2fe9  00 00                             add     [eax],al
 2feb  00 00                             add     [eax],al
 2fed  00 00                             add     [eax],al
 2fef  00 00                             add     [eax],al
 2ff1  00 00                             add     [eax],al
 2ff3  00 00                             add     [eax],al
 2ff5  00 00                             add     [eax],al
 2ff7  00 00                             add     [eax],al
 2ff9  00 00                             add     [eax],al
 2ffb  00 00                             add     [eax],al
 2ffd  00 00                             add     [eax],al
 2fff  00 00                             add     [eax],al
 3001  00 00                             add     [eax],al
 3003  00 00                             add     [eax],al
 3005  00 00                             add     [eax],al
 3007  00 00                             add     [eax],al
 3009  00 00                             add     [eax],al
 300b  00 00                             add     [eax],al
 300d  00 00                             add     [eax],al
 300f  00 00                             add     [eax],al
 3011  00 00                             add     [eax],al
 3013  00 00                             add     [eax],al
 3015  00 00                             add     [eax],al
 3017  00 00                             add     [eax],al
 3019  00 00                             add     [eax],al
 301b  00 00                             add     [eax],al
 301d  00 00                             add     [eax],al
 301f  00 00                             add     [eax],al
 3021  00 00                             add     [eax],al
 3023  00 00                             add     [eax],al
 3025  00 00                             add     [eax],al
 3027  00 00                             add     [eax],al
 3029  00 00                             add     [eax],al
 302b  00 00                             add     [eax],al
 302d  00 00                             add     [eax],al
 302f  00 00                             add     [eax],al
 3031  00 00                             add     [eax],al
 3033  00 00                             add     [eax],al
 3035  00 00                             add     [eax],al
 3037  00 00                             add     [eax],al
 3039  00 00                             add     [eax],al
 303b  00 00                             add     [eax],al
 303d  00 00                             add     [eax],al
 303f  00 00                             add     [eax],al
 3041  00 00                             add     [eax],al
 3043  00 00                             add     [eax],al
 3045  00 00                             add     [eax],al
 3047  00 00                             add     [eax],al
 3049  00 00                             add     [eax],al
 304b  00 00                             add     [eax],al
 304d  00 00                             add     [eax],al
 304f  00 00                             add     [eax],al
 3051  00 00                             add     [eax],al
 3053  00 00                             add     [eax],al
 3055  00 00                             add     [eax],al
 3057  00 00                             add     [eax],al
 3059  00 00                             add     [eax],al
 305b  00 00                             add     [eax],al
 305d  00 00                             add     [eax],al
 305f  00 00                             add     [eax],al
 3061  00 00                             add     [eax],al
 3063  00 00                             add     [eax],al
 3065  00 00                             add     [eax],al
 3067  00 00                             add     [eax],al
 3069  00 00                             add     [eax],al
 306b  00 00                             add     [eax],al
 306d  00 00                             add     [eax],al
 306f  00 00                             add     [eax],al
 3071  00 00                             add     [eax],al
 3073  00 00                             add     [eax],al
 3075  00 00                             add     [eax],al
 3077  00 00                             add     [eax],al
 3079  00 00                             add     [eax],al
 307b  00 00                             add     [eax],al
 307d  00 00                             add     [eax],al
 307f  00 00                             add     [eax],al
 3081  00 00                             add     [eax],al
 3083  00 00                             add     [eax],al
 3085  00 00                             add     [eax],al
 3087  00 00                             add     [eax],al
 3089  00 00                             add     [eax],al
 308b  00 00                             add     [eax],al
 308d  00 00                             add     [eax],al
 308f  00 00                             add     [eax],al
 3091  00 00                             add     [eax],al
 3093  00 00                             add     [eax],al
 3095  00 00                             add     [eax],al
 3097  00 00                             add     [eax],al
 3099  00 00                             add     [eax],al
 309b  00 00                             add     [eax],al
 309d  00 00                             add     [eax],al
 309f  00 00                             add     [eax],al
 30a1  00 00                             add     [eax],al
 30a3  00 00                             add     [eax],al
 30a5  00 00                             add     [eax],al
 30a7  00 00                             add     [eax],al
 30a9  00 00                             add     [eax],al
 30ab  00 00                             add     [eax],al
 30ad  00 00                             add     [eax],al
 30af  00 00                             add     [eax],al
 30b1  00 00                             add     [eax],al
 30b3  00 00                             add     [eax],al
 30b5  00 00                             add     [eax],al
 30b7  00 00                             add     [eax],al
 30b9  00 00                             add     [eax],al
 30bb  00 00                             add     [eax],al
 30bd  00 00                             add     [eax],al
 30bf  00 00                             add     [eax],al
 30c1  00 00                             add     [eax],al
 30c3  00 00                             add     [eax],al
 30c5  00 00                             add     [eax],al
 30c7  00 00                             add     [eax],al
 30c9  00 00                             add     [eax],al
 30cb  00 00                             add     [eax],al
 30cd  00 00                             add     [eax],al
 30cf  00 00                             add     [eax],al
 30d1  00 00                             add     [eax],al
 30d3  00 00                             add     [eax],al
 30d5  00 00                             add     [eax],al
 30d7  00 00                             add     [eax],al
 30d9  00 00                             add     [eax],al
 30db  00 00                             add     [eax],al
 30dd  00 00                             add     [eax],al
 30df  00 00                             add     [eax],al
 30e1  00 00                             add     [eax],al
 30e3  00 00                             add     [eax],al
 30e5  00 00                             add     [eax],al
 30e7  00 00                             add     [eax],al
 30e9  00 00                             add     [eax],al
 30eb  00 00                             add     [eax],al
 30ed  00 00                             add     [eax],al
 30ef  00 00                             add     [eax],al
 30f1  00 00                             add     [eax],al
 30f3  00 00                             add     [eax],al
 30f5  00 00                             add     [eax],al
 30f7  00 00                             add     [eax],al
 30f9  00 00                             add     [eax],al
 30fb  00 00                             add     [eax],al
 30fd  00 00                             add     [eax],al
 30ff  00 00                             add     [eax],al
 3101  00 00                             add     [eax],al
 3103  00 00                             add     [eax],al
 3105  00 00                             add     [eax],al
 3107  00 00                             add     [eax],al
 3109  00 00                             add     [eax],al
 310b  00 00                             add     [eax],al
 310d  00 00                             add     [eax],al
 310f  00 00                             add     [eax],al
 3111  00 00                             add     [eax],al
 3113  00 00                             add     [eax],al
 3115  00 00                             add     [eax],al
 3117  00 00                             add     [eax],al
 3119  00 00                             add     [eax],al
 311b  00 00                             add     [eax],al
 311d  00 00                             add     [eax],al
 311f  00 00                             add     [eax],al
 3121  00 00                             add     [eax],al
 3123  00 00                             add     [eax],al
 3125  00 00                             add     [eax],al
 3127  00 00                             add     [eax],al
 3129  00 00                             add     [eax],al
 312b  00 00                             add     [eax],al
 312d  00 00                             add     [eax],al
 312f  00 00                             add     [eax],al
 3131  00 00                             add     [eax],al
 3133  00 00                             add     [eax],al
 3135  00 00                             add     [eax],al
 3137  00 00                             add     [eax],al
 3139  00 00                             add     [eax],al
 313b  00 00                             add     [eax],al
 313d  00 00                             add     [eax],al
 313f  00 00                             add     [eax],al
 3141  00 00                             add     [eax],al
 3143  00 00                             add     [eax],al
 3145  00 00                             add     [eax],al
 3147  00 00                             add     [eax],al
 3149  00 00                             add     [eax],al
 314b  00 00                             add     [eax],al
 314d  00 00                             add     [eax],al
 314f  00 00                             add     [eax],al
 3151  00 00                             add     [eax],al
 3153  00 00                             add     [eax],al
 3155  00 00                             add     [eax],al
 3157  00 00                             add     [eax],al
 3159  00 00                             add     [eax],al
 315b  00 00                             add     [eax],al
 315d  00 00                             add     [eax],al
 315f  00 00                             add     [eax],al
 3161  00 00                             add     [eax],al
 3163  00 00                             add     [eax],al
 3165  00 00                             add     [eax],al
 3167  00 00                             add     [eax],al
 3169  00 00                             add     [eax],al
 316b  00 00                             add     [eax],al
 316d  00 00                             add     [eax],al
 316f  00 00                             add     [eax],al
 3171  00 00                             add     [eax],al
 3173  00 00                             add     [eax],al
 3175  00 00                             add     [eax],al
 3177  00 00                             add     [eax],al
 3179  00 00                             add     [eax],al
 317b  00 00                             add     [eax],al
 317d  00 00                             add     [eax],al
 317f  00 00                             add     [eax],al
 3181  00 00                             add     [eax],al
 3183  00 00                             add     [eax],al
 3185  00 00                             add     [eax],al
 3187  00 00                             add     [eax],al
 3189  00 00                             add     [eax],al
 318b  00 00                             add     [eax],al
 318d  00 00                             add     [eax],al
 318f  00 00                             add     [eax],al
 3191  00 00                             add     [eax],al
 3193  00 00                             add     [eax],al
 3195  00 00                             add     [eax],al
 3197  00 00                             add     [eax],al
 3199  00 00                             add     [eax],al
 319b  00 00                             add     [eax],al
 319d  00 00                             add     [eax],al
 319f  00 00                             add     [eax],al
 31a1  00 00                             add     [eax],al
 31a3  00 00                             add     [eax],al
 31a5  00 00                             add     [eax],al
 31a7  00 00                             add     [eax],al
 31a9  00 00                             add     [eax],al
 31ab  00 00                             add     [eax],al
 31ad  00 00                             add     [eax],al
 31af  00 00                             add     [eax],al
 31b1  00 00                             add     [eax],al
 31b3  00 00                             add     [eax],al
 31b5  00 00                             add     [eax],al
 31b7  00 00                             add     [eax],al
 31b9  00 00                             add     [eax],al
 31bb  00 00                             add     [eax],al
 31bd  00 00                             add     [eax],al
 31bf  00 00                             add     [eax],al
 31c1  00 00                             add     [eax],al
 31c3  00 00                             add     [eax],al
 31c5  00 00                             add     [eax],al
 31c7  00 00                             add     [eax],al
 31c9  00 00                             add     [eax],al
 31cb  00 00                             add     [eax],al
 31cd  00 00                             add     [eax],al
 31cf  00 00                             add     [eax],al
 31d1  00 00                             add     [eax],al
 31d3  00 00                             add     [eax],al
 31d5  00 00                             add     [eax],al
 31d7  00 00                             add     [eax],al
 31d9  00 00                             add     [eax],al
 31db  00 00                             add     [eax],al
 31dd  00 00                             add     [eax],al
 31df  00 00                             add     [eax],al
 31e1  00 00                             add     [eax],al
 31e3  00 00                             add     [eax],al
 31e5  00 00                             add     [eax],al
 31e7  00 00                             add     [eax],al
 31e9  00 00                             add     [eax],al
 31eb  00 00                             add     [eax],al
 31ed  00 00                             add     [eax],al
 31ef  00 00                             add     [eax],al
 31f1  00 00                             add     [eax],al
 31f3  00 00                             add     [eax],al
 31f5  00 00                             add     [eax],al
 31f7  00 00                             add     [eax],al
 31f9  00 00                             add     [eax],al
 31fb  00 00                             add     [eax],al
 31fd  00 00                             add     [eax],al
 31ff  00 00                             add     [eax],al
 3201  00 00                             add     [eax],al
 3203  00 00                             add     [eax],al
 3205  00 00                             add     [eax],al
 3207  00 00                             add     [eax],al
 3209  00 00                             add     [eax],al
 320b  00 00                             add     [eax],al
 320d  00 00                             add     [eax],al
 320f  00 00                             add     [eax],al
 3211  00 00                             add     [eax],al
 3213  00 00                             add     [eax],al
 3215  00 00                             add     [eax],al
 3217  00 00                             add     [eax],al
 3219  00 00                             add     [eax],al
 321b  00 00                             add     [eax],al
 321d  00 00                             add     [eax],al
 321f  00 00                             add     [eax],al
 3221  00 00                             add     [eax],al
 3223  00 00                             add     [eax],al
 3225  00 00                             add     [eax],al
 3227  00 00                             add     [eax],al
 3229  00 00                             add     [eax],al
 322b  00 00                             add     [eax],al
 322d  00 00                             add     [eax],al
 322f  00 00                             add     [eax],al
 3231  00 00                             add     [eax],al
 3233  00 00                             add     [eax],al
 3235  00 00                             add     [eax],al
 3237  00 00                             add     [eax],al
 3239  00 00                             add     [eax],al
 323b  00 00                             add     [eax],al
 323d  00 00                             add     [eax],al
 323f  00 00                             add     [eax],al
 3241  00 00                             add     [eax],al
 3243  00 00                             add     [eax],al
 3245  00 00                             add     [eax],al
 3247  00 00                             add     [eax],al
 3249  00 00                             add     [eax],al
 324b  00 00                             add     [eax],al
 324d  00 00                             add     [eax],al
 324f  00 00                             add     [eax],al
 3251  00 00                             add     [eax],al
 3253  00 00                             add     [eax],al
 3255  00 00                             add     [eax],al
 3257  00 00                             add     [eax],al
 3259  00 00                             add     [eax],al
 325b  00 00                             add     [eax],al
 325d  00 00                             add     [eax],al
 325f  00 00                             add     [eax],al
 3261  00 00                             add     [eax],al
 3263  00 00                             add     [eax],al
 3265  00 00                             add     [eax],al
 3267  00 00                             add     [eax],al
 3269  00 00                             add     [eax],al
 326b  00 00                             add     [eax],al
 326d  00 00                             add     [eax],al
 326f  00 00                             add     [eax],al
 3271  00 00                             add     [eax],al
 3273  00 00                             add     [eax],al
 3275  00 00                             add     [eax],al
 3277  00 00                             add     [eax],al
 3279  00 00                             add     [eax],al
 327b  00 00                             add     [eax],al
 327d  00 00                             add     [eax],al
 327f  00 00                             add     [eax],al
 3281  00 00                             add     [eax],al
 3283  00 00                             add     [eax],al
 3285  00 00                             add     [eax],al
 3287  00 00                             add     [eax],al
 3289  00 00                             add     [eax],al
 328b  00 00                             add     [eax],al
 328d  00 00                             add     [eax],al
 328f  00 00                             add     [eax],al
 3291  00 00                             add     [eax],al
 3293  00 00                             add     [eax],al
 3295  00 00                             add     [eax],al
 3297  00 00                             add     [eax],al
 3299  00 00                             add     [eax],al
 329b  00 00                             add     [eax],al
 329d  00 00                             add     [eax],al
 329f  00 00                             add     [eax],al
 32a1  00 00                             add     [eax],al
 32a3  00 00                             add     [eax],al
 32a5  00 00                             add     [eax],al
 32a7  00 00                             add     [eax],al
 32a9  00 00                             add     [eax],al
 32ab  00 00                             add     [eax],al
 32ad  00 00                             add     [eax],al
 32af  00 00                             add     [eax],al
 32b1  00 00                             add     [eax],al
 32b3  00 00                             add     [eax],al
 32b5  00 00                             add     [eax],al
 32b7  00 00                             add     [eax],al
 32b9  00 00                             add     [eax],al
 32bb  00 00                             add     [eax],al
 32bd  00 00                             add     [eax],al
 32bf  00 00                             add     [eax],al
 32c1  00 00                             add     [eax],al
 32c3  00 00                             add     [eax],al
 32c5  00 00                             add     [eax],al
 32c7  00 00                             add     [eax],al
 32c9  00 00                             add     [eax],al
 32cb  00 00                             add     [eax],al
 32cd  00 00                             add     [eax],al
 32cf  00 00                             add     [eax],al
 32d1  00 00                             add     [eax],al
 32d3  00 00                             add     [eax],al
 32d5  00 00                             add     [eax],al
 32d7  00 00                             add     [eax],al
 32d9  00 00                             add     [eax],al
 32db  00 00                             add     [eax],al
 32dd  00 00                             add     [eax],al
 32df  00 00                             add     [eax],al
 32e1  00 00                             add     [eax],al
 32e3  00 00                             add     [eax],al
 32e5  00 00                             add     [eax],al
 32e7  00 00                             add     [eax],al
 32e9  00 00                             add     [eax],al
 32eb  00 00                             add     [eax],al
 32ed  00 00                             add     [eax],al
 32ef  00 00                             add     [eax],al
 32f1  00 00                             add     [eax],al
 32f3  00 00                             add     [eax],al
 32f5  00 00                             add     [eax],al
 32f7  00 00                             add     [eax],al
 32f9  00 00                             add     [eax],al
 32fb  00 00                             add     [eax],al
 32fd  00 00                             add     [eax],al
 32ff  00 00                             add     [eax],al
 3301  00 00                             add     [eax],al
 3303  00 00                             add     [eax],al
 3305  00 00                             add     [eax],al
 3307  00 00                             add     [eax],al
 3309  00 00                             add     [eax],al
 330b  00 00                             add     [eax],al
 330d  00 00                             add     [eax],al
 330f  00 00                             add     [eax],al
 3311  00 00                             add     [eax],al
 3313  00 00                             add     [eax],al
 3315  00 00                             add     [eax],al
 3317  00 00                             add     [eax],al
 3319  00 00                             add     [eax],al
 331b  00 00                             add     [eax],al
 331d  00 00                             add     [eax],al
 331f  00 00                             add     [eax],al
 3321  00 00                             add     [eax],al
 3323  00 00                             add     [eax],al
 3325  00 00                             add     [eax],al
 3327  00 00                             add     [eax],al
 3329  00 00                             add     [eax],al
 332b  00 00                             add     [eax],al
 332d  00 00                             add     [eax],al
 332f  00 00                             add     [eax],al
 3331  00 00                             add     [eax],al
 3333  00 00                             add     [eax],al
 3335  00 00                             add     [eax],al
 3337  00 00                             add     [eax],al
 3339  00 00                             add     [eax],al
 333b  00 00                             add     [eax],al
 333d  00 00                             add     [eax],al
 333f  00 00                             add     [eax],al
 3341  00 00                             add     [eax],al
 3343  00 00                             add     [eax],al
 3345  00 00                             add     [eax],al
 3347  00 00                             add     [eax],al
 3349  00 00                             add     [eax],al
 334b  00 00                             add     [eax],al
 334d  00 00                             add     [eax],al
 334f  00 00                             add     [eax],al
 3351  00 00                             add     [eax],al
 3353  00 00                             add     [eax],al
 3355  00 00                             add     [eax],al
 3357  00 00                             add     [eax],al
 3359  00 00                             add     [eax],al
 335b  00 00                             add     [eax],al
 335d  00 00                             add     [eax],al
 335f  00 00                             add     [eax],al
 3361  00 00                             add     [eax],al
 3363  00 00                             add     [eax],al
 3365  00 00                             add     [eax],al
 3367  00 00                             add     [eax],al
 3369  00 00                             add     [eax],al
 336b  00 00                             add     [eax],al
 336d  00 00                             add     [eax],al
 336f  00 00                             add     [eax],al
 3371  00 00                             add     [eax],al
 3373  00 00                             add     [eax],al
 3375  00 00                             add     [eax],al
 3377  00 00                             add     [eax],al
 3379  00 00                             add     [eax],al
 337b  00 00                             add     [eax],al
 337d  00 00                             add     [eax],al
 337f  00 00                             add     [eax],al
 3381  00 00                             add     [eax],al
 3383  00 00                             add     [eax],al
 3385  00 00                             add     [eax],al
 3387  00 00                             add     [eax],al
 3389  00 00                             add     [eax],al
 338b  00 00                             add     [eax],al
 338d  00 00                             add     [eax],al
 338f  00 00                             add     [eax],al
 3391  00 00                             add     [eax],al
 3393  00 00                             add     [eax],al
 3395  00 00                             add     [eax],al
 3397  00 00                             add     [eax],al
 3399  00 00                             add     [eax],al
 339b  00 00                             add     [eax],al
 339d  00 00                             add     [eax],al
 339f  00 00                             add     [eax],al
 33a1  00 00                             add     [eax],al
 33a3  00 00                             add     [eax],al
 33a5  00 00                             add     [eax],al
 33a7  00 00                             add     [eax],al
 33a9  00 00                             add     [eax],al
 33ab  00 00                             add     [eax],al
 33ad  00 00                             add     [eax],al
 33af  00 00                             add     [eax],al
 33b1  00 00                             add     [eax],al
 33b3  00 00                             add     [eax],al
 33b5  00 00                             add     [eax],al
 33b7  00 00                             add     [eax],al
 33b9  00 00                             add     [eax],al
 33bb  00 00                             add     [eax],al
 33bd  00 00                             add     [eax],al
 33bf  00 00                             add     [eax],al
 33c1  00 00                             add     [eax],al
 33c3  00 00                             add     [eax],al
 33c5  00 00                             add     [eax],al
 33c7  00 00                             add     [eax],al
 33c9  00 00                             add     [eax],al
 33cb  00 00                             add     [eax],al
 33cd  00 00                             add     [eax],al
 33cf  00 00                             add     [eax],al
 33d1  00 00                             add     [eax],al
 33d3  00 00                             add     [eax],al
 33d5  00 00                             add     [eax],al
 33d7  00 00                             add     [eax],al
 33d9  00 00                             add     [eax],al
 33db  00 00                             add     [eax],al
 33dd  00 00                             add     [eax],al
 33df  00 00                             add     [eax],al
 33e1  00 00                             add     [eax],al
 33e3  00 00                             add     [eax],al
 33e5  00 00                             add     [eax],al
 33e7  00 00                             add     [eax],al
 33e9  00 00                             add     [eax],al
 33eb  00 00                             add     [eax],al
 33ed  00 00                             add     [eax],al
 33ef  00 00                             add     [eax],al
 33f1  00 00                             add     [eax],al
 33f3  00 00                             add     [eax],al
 33f5  00 00                             add     [eax],al
 33f7  00 00                             add     [eax],al
 33f9  00 00                             add     [eax],al
 33fb  00 00                             add     [eax],al
 33fd  00 00                             add     [eax],al
 33ff  00 00                             add     [eax],al
 3401  00 00                             add     [eax],al
 3403  00 00                             add     [eax],al
 3405  00 00                             add     [eax],al
 3407  00 00                             add     [eax],al
 3409  00 00                             add     [eax],al
 340b  00 00                             add     [eax],al
 340d  00 00                             add     [eax],al
 340f  00 00                             add     [eax],al
 3411  00 00                             add     [eax],al
 3413  00 00                             add     [eax],al
 3415  00 00                             add     [eax],al
 3417  00 00                             add     [eax],al
 3419  00 00                             add     [eax],al
 341b  00 00                             add     [eax],al
 341d  00 00                             add     [eax],al
 341f  00 00                             add     [eax],al
 3421  00 00                             add     [eax],al
 3423  00 00                             add     [eax],al
 3425  00 00                             add     [eax],al
 3427  00 00                             add     [eax],al
 3429  00 00                             add     [eax],al
 342b  00 00                             add     [eax],al
 342d  00 00                             add     [eax],al
 342f  00 00                             add     [eax],al
 3431  00 00                             add     [eax],al
 3433  00 00                             add     [eax],al
 3435  00 00                             add     [eax],al
 3437  00 00                             add     [eax],al
 3439  00 00                             add     [eax],al
 343b  00 00                             add     [eax],al
 343d  00 00                             add     [eax],al
 343f  00 00                             add     [eax],al
 3441  00 00                             add     [eax],al
 3443  00 00                             add     [eax],al
 3445  00 00                             add     [eax],al
 3447  00 00                             add     [eax],al
 3449  00 00                             add     [eax],al
 344b  00 00                             add     [eax],al
 344d  00 00                             add     [eax],al
 344f  00 00                             add     [eax],al
 3451  00 00                             add     [eax],al
 3453  00 00                             add     [eax],al
 3455  00 00                             add     [eax],al
 3457  00 00                             add     [eax],al
 3459  00 00                             add     [eax],al
 345b  00 00                             add     [eax],al
 345d  00 00                             add     [eax],al
 345f  00 00                             add     [eax],al
 3461  00 00                             add     [eax],al
 3463  00 00                             add     [eax],al
 3465  00 00                             add     [eax],al
 3467  00 00                             add     [eax],al
 3469  00 00                             add     [eax],al
 346b  00 00                             add     [eax],al
 346d  00 00                             add     [eax],al
 346f  00 00                             add     [eax],al
 3471  00 00                             add     [eax],al
 3473  00 00                             add     [eax],al
 3475  00 00                             add     [eax],al
 3477  00 00                             add     [eax],al
 3479  00 00                             add     [eax],al
 347b  00 00                             add     [eax],al
 347d  00 00                             add     [eax],al
 347f  00 00                             add     [eax],al
 3481  00 00                             add     [eax],al
 3483  00 00                             add     [eax],al
 3485  00 00                             add     [eax],al
 3487  00 00                             add     [eax],al
 3489  00 00                             add     [eax],al
 348b  00 00                             add     [eax],al
 348d  00 00                             add     [eax],al
 348f  00 00                             add     [eax],al
 3491  00 00                             add     [eax],al
 3493  00 00                             add     [eax],al
 3495  00 00                             add     [eax],al
 3497  00 00                             add     [eax],al
 3499  00 00                             add     [eax],al
 349b  00 00                             add     [eax],al
 349d  00 00                             add     [eax],al
 349f  00 00                             add     [eax],al
 34a1  00 00                             add     [eax],al
 34a3  00 00                             add     [eax],al
 34a5  00 00                             add     [eax],al
 34a7  00 00                             add     [eax],al
 34a9  00 00                             add     [eax],al
 34ab  00 00                             add     [eax],al
 34ad  00 00                             add     [eax],al
 34af  00 00                             add     [eax],al
 34b1  00 00                             add     [eax],al
 34b3  00 00                             add     [eax],al
 34b5  00 00                             add     [eax],al
 34b7  00 00                             add     [eax],al
 34b9  00 00                             add     [eax],al
 34bb  00 00                             add     [eax],al
 34bd  00 00                             add     [eax],al
 34bf  00 00                             add     [eax],al
 34c1  00 00                             add     [eax],al
 34c3  00 00                             add     [eax],al
 34c5  00 00                             add     [eax],al
 34c7  00 00                             add     [eax],al
 34c9  00 00                             add     [eax],al
 34cb  00 00                             add     [eax],al
 34cd  00 00                             add     [eax],al
 34cf  00 00                             add     [eax],al
 34d1  00 00                             add     [eax],al
 34d3  00 00                             add     [eax],al
 34d5  00 00                             add     [eax],al
 34d7  00 00                             add     [eax],al
 34d9  00 00                             add     [eax],al
 34db  00 00                             add     [eax],al
 34dd  00 00                             add     [eax],al
 34df  00 00                             add     [eax],al
 34e1  00 00                             add     [eax],al
 34e3  00 00                             add     [eax],al
 34e5  00 00                             add     [eax],al
 34e7  00 00                             add     [eax],al
 34e9  00 00                             add     [eax],al
 34eb  00 00                             add     [eax],al
 34ed  00 00                             add     [eax],al
 34ef  00 00                             add     [eax],al
 34f1  00 00                             add     [eax],al
 34f3  00 00                             add     [eax],al
 34f5  00 00                             add     [eax],al
 34f7  00 00                             add     [eax],al
 34f9  00 00                             add     [eax],al
 34fb  00 00                             add     [eax],al
 34fd  00 00                             add     [eax],al
 34ff  00 00                             add     [eax],al
 3501  00 00                             add     [eax],al
 3503  00 00                             add     [eax],al
 3505  00 00                             add     [eax],al
 3507  00 00                             add     [eax],al
 3509  00 00                             add     [eax],al
 350b  00 00                             add     [eax],al
 350d  00 00                             add     [eax],al
 350f  00 00                             add     [eax],al
 3511  00 00                             add     [eax],al
 3513  00 00                             add     [eax],al
 3515  00 00                             add     [eax],al
 3517  00 00                             add     [eax],al
 3519  00 00                             add     [eax],al
 351b  00 00                             add     [eax],al
 351d  00 00                             add     [eax],al
 351f  00 00                             add     [eax],al
 3521  00 00                             add     [eax],al
 3523  00 00                             add     [eax],al
 3525  00 00                             add     [eax],al
 3527  00 00                             add     [eax],al
 3529  00 00                             add     [eax],al
 352b  00 00                             add     [eax],al
 352d  00 00                             add     [eax],al
 352f  00 00                             add     [eax],al
 3531  00 00                             add     [eax],al
 3533  00 00                             add     [eax],al
 3535  00 00                             add     [eax],al
 3537  00 00                             add     [eax],al
 3539  00 00                             add     [eax],al
 353b  00 00                             add     [eax],al
 353d  00 00                             add     [eax],al
 353f  00 00                             add     [eax],al
 3541  00 00                             add     [eax],al
 3543  00 00                             add     [eax],al
 3545  00 00                             add     [eax],al
 3547  00 00                             add     [eax],al
 3549  00 00                             add     [eax],al
 354b  00 00                             add     [eax],al
 354d  00 00                             add     [eax],al
 354f  00 00                             add     [eax],al
 3551  00 00                             add     [eax],al
 3553  00 00                             add     [eax],al
 3555  00 00                             add     [eax],al
 3557  00 00                             add     [eax],al
 3559  00 00                             add     [eax],al
 355b  00 00                             add     [eax],al
 355d  00 00                             add     [eax],al
 355f  00 00                             add     [eax],al
 3561  00 00                             add     [eax],al
 3563  00 00                             add     [eax],al
 3565  00 00                             add     [eax],al
 3567  00 00                             add     [eax],al
 3569  00 00                             add     [eax],al
 356b  00 00                             add     [eax],al
 356d  00 00                             add     [eax],al
 356f  00 00                             add     [eax],al
 3571  00 00                             add     [eax],al
 3573  00 00                             add     [eax],al
 3575  00 00                             add     [eax],al
 3577  00 00                             add     [eax],al
 3579  00 00                             add     [eax],al
 357b  00 00                             add     [eax],al
 357d  00 00                             add     [eax],al
 357f  00 00                             add     [eax],al
 3581  00 00                             add     [eax],al
 3583  00 00                             add     [eax],al
 3585  00 00                             add     [eax],al
 3587  00 00                             add     [eax],al
 3589  00 00                             add     [eax],al
 358b  00 00                             add     [eax],al
 358d  00 00                             add     [eax],al
 358f  00 00                             add     [eax],al
 3591  00 00                             add     [eax],al
 3593  00 00                             add     [eax],al
 3595  00 00                             add     [eax],al
 3597  00 00                             add     [eax],al
 3599  00 00                             add     [eax],al
 359b  00 00                             add     [eax],al
 359d  00 00                             add     [eax],al
 359f  00 00                             add     [eax],al
 35a1  00 00                             add     [eax],al
 35a3  00 00                             add     [eax],al
 35a5  00 00                             add     [eax],al
 35a7  00 00                             add     [eax],al
 35a9  00 00                             add     [eax],al
 35ab  00 00                             add     [eax],al
 35ad  00 00                             add     [eax],al
 35af  00 00                             add     [eax],al
 35b1  00 00                             add     [eax],al
 35b3  00 00                             add     [eax],al
 35b5  00 00                             add     [eax],al
 35b7  00 00                             add     [eax],al
 35b9  00 00                             add     [eax],al
 35bb  00 00                             add     [eax],al
 35bd  00 00                             add     [eax],al
 35bf  00 00                             add     [eax],al
 35c1  00 00                             add     [eax],al
 35c3  00 00                             add     [eax],al
 35c5  00 00                             add     [eax],al
 35c7  00 00                             add     [eax],al
 35c9  00 00                             add     [eax],al
 35cb  00 00                             add     [eax],al
 35cd  00 00                             add     [eax],al
 35cf  00 00                             add     [eax],al
 35d1  00 00                             add     [eax],al
 35d3  00 00                             add     [eax],al
 35d5  00 00                             add     [eax],al
 35d7  00 00                             add     [eax],al
 35d9  00 00                             add     [eax],al
 35db  00 00                             add     [eax],al
 35dd  00 00                             add     [eax],al
 35df  00 00                             add     [eax],al
 35e1  00 00                             add     [eax],al
 35e3  00 00                             add     [eax],al
 35e5  00 00                             add     [eax],al
 35e7  00 00                             add     [eax],al
 35e9  00 00                             add     [eax],al
 35eb  00 00                             add     [eax],al
 35ed  00 00                             add     [eax],al
 35ef  00 00                             add     [eax],al
 35f1  00 00                             add     [eax],al
 35f3  00 00                             add     [eax],al
 35f5  00 00                             add     [eax],al
 35f7  00 00                             add     [eax],al
 35f9  00 00                             add     [eax],al
 35fb  00 00                             add     [eax],al
 35fd  00 00                             add     [eax],al
 35ff  00 00                             add     [eax],al
 3601  00 00                             add     [eax],al
 3603  00 00                             add     [eax],al
 3605  00 00                             add     [eax],al
 3607  00 00                             add     [eax],al
 3609  00 00                             add     [eax],al
 360b  00 00                             add     [eax],al
 360d  00 00                             add     [eax],al
 360f  00 00                             add     [eax],al
 3611  00 00                             add     [eax],al
 3613  00 00                             add     [eax],al
 3615  00 00                             add     [eax],al
 3617  00 00                             add     [eax],al
 3619  00 00                             add     [eax],al
 361b  00 00                             add     [eax],al
 361d  00 00                             add     [eax],al
 361f  00 00                             add     [eax],al
 3621  00 00                             add     [eax],al
 3623  00 00                             add     [eax],al
 3625  00 00                             add     [eax],al
 3627  00 00                             add     [eax],al
 3629  00 00                             add     [eax],al
 362b  00 00                             add     [eax],al
 362d  00 00                             add     [eax],al
 362f  00 00                             add     [eax],al
 3631  00 00                             add     [eax],al
 3633  00 00                             add     [eax],al
 3635  00 00                             add     [eax],al
 3637  00 00                             add     [eax],al
 3639  00 00                             add     [eax],al
 363b  00 00                             add     [eax],al
 363d  00 00                             add     [eax],al
 363f  00 00                             add     [eax],al
 3641  00 00                             add     [eax],al
 3643  00 00                             add     [eax],al
 3645  00 00                             add     [eax],al
 3647  00 00                             add     [eax],al
 3649  00 00                             add     [eax],al
 364b  00 00                             add     [eax],al
 364d  00 00                             add     [eax],al
 364f  00 00                             add     [eax],al
 3651  00 00                             add     [eax],al
 3653  00 00                             add     [eax],al
 3655  00 00                             add     [eax],al
 3657  00 00                             add     [eax],al
 3659  00 00                             add     [eax],al
 365b  00 00                             add     [eax],al
 365d  00 00                             add     [eax],al
 365f  00 00                             add     [eax],al
 3661  00 00                             add     [eax],al
 3663  00 00                             add     [eax],al
 3665  00 00                             add     [eax],al
 3667  00 00                             add     [eax],al
 3669  00 00                             add     [eax],al
 366b  00 00                             add     [eax],al
 366d  00 00                             add     [eax],al
 366f  00 00                             add     [eax],al
 3671  00 00                             add     [eax],al
 3673  00 00                             add     [eax],al
 3675  00 00                             add     [eax],al
 3677  00 00                             add     [eax],al
 3679  00 00                             add     [eax],al
 367b  00 00                             add     [eax],al
 367d  00 00                             add     [eax],al
 367f  00 00                             add     [eax],al
 3681  00 00                             add     [eax],al
 3683  00 00                             add     [eax],al
 3685  00 00                             add     [eax],al
 3687  00 00                             add     [eax],al
 3689  00 00                             add     [eax],al
 368b  00 00                             add     [eax],al
 368d  00 00                             add     [eax],al
 368f  00 00                             add     [eax],al
 3691  00 00                             add     [eax],al
 3693  00 00                             add     [eax],al
 3695  00 00                             add     [eax],al
 3697  00 00                             add     [eax],al
 3699  00 00                             add     [eax],al
 369b  00 00                             add     [eax],al
 369d  00 00                             add     [eax],al
 369f  00 00                             add     [eax],al
 36a1  00 00                             add     [eax],al
 36a3  00 00                             add     [eax],al
 36a5  00 00                             add     [eax],al
 36a7  00 00                             add     [eax],al
 36a9  00 00                             add     [eax],al
 36ab  00 00                             add     [eax],al
 36ad  00 00                             add     [eax],al
 36af  00 00                             add     [eax],al
 36b1  00 00                             add     [eax],al
 36b3  00 00                             add     [eax],al
 36b5  00 00                             add     [eax],al
 36b7  00 00                             add     [eax],al
 36b9  00 00                             add     [eax],al
 36bb  00 00                             add     [eax],al
 36bd  00 00                             add     [eax],al
 36bf  00 00                             add     [eax],al
 36c1  00 00                             add     [eax],al
 36c3  00 00                             add     [eax],al
 36c5  00 00                             add     [eax],al
 36c7  00 00                             add     [eax],al
 36c9  00 00                             add     [eax],al
 36cb  00 00                             add     [eax],al
 36cd  00 00                             add     [eax],al
 36cf  00 00                             add     [eax],al
 36d1  00 00                             add     [eax],al
 36d3  00 00                             add     [eax],al
 36d5  00 00                             add     [eax],al
 36d7  00 00                             add     [eax],al
 36d9  00 00                             add     [eax],al
 36db  00 00                             add     [eax],al
 36dd  00 00                             add     [eax],al
 36df  00 00                             add     [eax],al
 36e1  00 00                             add     [eax],al
 36e3  00 00                             add     [eax],al
 36e5  00 00                             add     [eax],al
 36e7  00 00                             add     [eax],al
 36e9  00 00                             add     [eax],al
 36eb  00 00                             add     [eax],al
 36ed  00 00                             add     [eax],al
 36ef  00 00                             add     [eax],al
 36f1  00 00                             add     [eax],al
 36f3  00 00                             add     [eax],al
 36f5  00 00                             add     [eax],al
 36f7  00 00                             add     [eax],al
 36f9  00 00                             add     [eax],al
 36fb  00 00                             add     [eax],al
 36fd  00 00                             add     [eax],al
 36ff  00 00                             add     [eax],al
 3701  00 00                             add     [eax],al
 3703  00 00                             add     [eax],al
 3705  00 00                             add     [eax],al
 3707  00 00                             add     [eax],al
 3709  00 00                             add     [eax],al
 370b  00 00                             add     [eax],al
 370d  00 00                             add     [eax],al
 370f  00 00                             add     [eax],al
 3711  00 00                             add     [eax],al
 3713  00 00                             add     [eax],al
 3715  00 00                             add     [eax],al
 3717  00 00                             add     [eax],al
 3719  00 00                             add     [eax],al
 371b  00 00                             add     [eax],al
 371d  00 00                             add     [eax],al
 371f  00 00                             add     [eax],al
 3721  00 00                             add     [eax],al
 3723  00 00                             add     [eax],al
 3725  00 00                             add     [eax],al
 3727  00 00                             add     [eax],al
 3729  00 00                             add     [eax],al
 372b  00 00                             add     [eax],al
 372d  00 00                             add     [eax],al
 372f  00 00                             add     [eax],al
 3731  00 00                             add     [eax],al
 3733  00 00                             add     [eax],al
 3735  00 00                             add     [eax],al
 3737  00 00                             add     [eax],al
 3739  00 00                             add     [eax],al
 373b  00 00                             add     [eax],al
 373d  00 00                             add     [eax],al
 373f  00 00                             add     [eax],al
 3741  00 00                             add     [eax],al
 3743  00 00                             add     [eax],al
 3745  00 00                             add     [eax],al
 3747  00 00                             add     [eax],al
 3749  00 00                             add     [eax],al
 374b  00 00                             add     [eax],al
 374d  00 00                             add     [eax],al
 374f  00 00                             add     [eax],al
 3751  00 00                             add     [eax],al
 3753  00 00                             add     [eax],al
 3755  00 00                             add     [eax],al
 3757  00 00                             add     [eax],al
 3759  00 00                             add     [eax],al
 375b  00 00                             add     [eax],al
 375d  00 00                             add     [eax],al
 375f  00 00                             add     [eax],al
 3761  00 00                             add     [eax],al
 3763  00 00                             add     [eax],al
 3765  00 00                             add     [eax],al
 3767  00 00                             add     [eax],al
 3769  00 00                             add     [eax],al
 376b  00 00                             add     [eax],al
 376d  00 00                             add     [eax],al
 376f  00 00                             add     [eax],al
 3771  00 00                             add     [eax],al
 3773  00 00                             add     [eax],al
 3775  00 00                             add     [eax],al
 3777  00 00                             add     [eax],al
 3779  00 00                             add     [eax],al
 377b  00 00                             add     [eax],al
 377d  00 00                             add     [eax],al
 377f  00 00                             add     [eax],al
 3781  00 00                             add     [eax],al
 3783  00 00                             add     [eax],al
 3785  00 00                             add     [eax],al
 3787  00 00                             add     [eax],al
 3789  00 00                             add     [eax],al
 378b  00 00                             add     [eax],al
 378d  00 00                             add     [eax],al
 378f  00 00                             add     [eax],al
 3791  00 00                             add     [eax],al
 3793  00 00                             add     [eax],al
 3795  00 00                             add     [eax],al
 3797  00 00                             add     [eax],al
 3799  00 00                             add     [eax],al
 379b  00 00                             add     [eax],al
 379d  00 00                             add     [eax],al
 379f  00 00                             add     [eax],al
 37a1  00 00                             add     [eax],al
 37a3  00 00                             add     [eax],al
 37a5  00 00                             add     [eax],al
 37a7  00 00                             add     [eax],al
 37a9  00 00                             add     [eax],al
 37ab  00 00                             add     [eax],al
 37ad  00 00                             add     [eax],al
 37af  00 00                             add     [eax],al
 37b1  00 00                             add     [eax],al
 37b3  00 00                             add     [eax],al
 37b5  00 00                             add     [eax],al
 37b7  00 00                             add     [eax],al
 37b9  00 00                             add     [eax],al
 37bb  00 00                             add     [eax],al
 37bd  00 00                             add     [eax],al
 37bf  00 00                             add     [eax],al
 37c1  00 00                             add     [eax],al
 37c3  00 00                             add     [eax],al
 37c5  00 00                             add     [eax],al
 37c7  00 00                             add     [eax],al
 37c9  00 00                             add     [eax],al
 37cb  00 00                             add     [eax],al
 37cd  00 00                             add     [eax],al
 37cf  00 00                             add     [eax],al
 37d1  00 00                             add     [eax],al
 37d3  00 00                             add     [eax],al
 37d5  00 00                             add     [eax],al
 37d7  00 00                             add     [eax],al
 37d9  00 00                             add     [eax],al
 37db  00 00                             add     [eax],al
 37dd  00 00                             add     [eax],al
 37df  00 00                             add     [eax],al
 37e1  00 00                             add     [eax],al
 37e3  00 00                             add     [eax],al
 37e5  00 00                             add     [eax],al
 37e7  00 00                             add     [eax],al
 37e9  00 00                             add     [eax],al
 37eb  00 00                             add     [eax],al
 37ed  00 00                             add     [eax],al
 37ef  00 00                             add     [eax],al
 37f1  00 00                             add     [eax],al
 37f3  00 00                             add     [eax],al
 37f5  00 00                             add     [eax],al
 37f7  00 00                             add     [eax],al
 37f9  00 00                             add     [eax],al
 37fb  00 00                             add     [eax],al
 37fd  00 00                             add     [eax],al
 37ff  00 00                             add     [eax],al
 3801  00 00                             add     [eax],al
 3803  00 00                             add     [eax],al
 3805  00 00                             add     [eax],al
 3807  00 00                             add     [eax],al
 3809  00 00                             add     [eax],al
 380b  00 00                             add     [eax],al
 380d  00 00                             add     [eax],al
 380f  00 00                             add     [eax],al
 3811  00 00                             add     [eax],al
 3813  00 00                             add     [eax],al
 3815  00 00                             add     [eax],al
 3817  00 00                             add     [eax],al
 3819  00 00                             add     [eax],al
 381b  00 00                             add     [eax],al
 381d  00 00                             add     [eax],al
 381f  00 00                             add     [eax],al
 3821  00 00                             add     [eax],al
 3823  00 00                             add     [eax],al
 3825  00 00                             add     [eax],al
 3827  00 00                             add     [eax],al
 3829  00 00                             add     [eax],al
 382b  00 00                             add     [eax],al
 382d  00 00                             add     [eax],al
 382f  00 00                             add     [eax],al
 3831  00 00                             add     [eax],al
 3833  00 00                             add     [eax],al
 3835  00 00                             add     [eax],al
 3837  00 00                             add     [eax],al
 3839  00 00                             add     [eax],al
 383b  00 00                             add     [eax],al
 383d  00 00                             add     [eax],al
 383f  00 00                             add     [eax],al
 3841  00 00                             add     [eax],al
 3843  00 00                             add     [eax],al
 3845  00 00                             add     [eax],al
 3847  00 00                             add     [eax],al
 3849  00 00                             add     [eax],al
 384b  00 00                             add     [eax],al
 384d  00 00                             add     [eax],al
 384f  00 00                             add     [eax],al
 3851  00 00                             add     [eax],al
 3853  00 00                             add     [eax],al
 3855  00 00                             add     [eax],al
 3857  00 00                             add     [eax],al
 3859  00 00                             add     [eax],al
 385b  00 00                             add     [eax],al
 385d  00 00                             add     [eax],al
 385f  00 00                             add     [eax],al
 3861  00 00                             add     [eax],al
 3863  00 00                             add     [eax],al
 3865  00 00                             add     [eax],al
 3867  00 00                             add     [eax],al
 3869  00 00                             add     [eax],al
 386b  00 00                             add     [eax],al
 386d  00 00                             add     [eax],al
 386f  00 00                             add     [eax],al
 3871  00 00                             add     [eax],al
 3873  00 00                             add     [eax],al
 3875  00 00                             add     [eax],al
 3877  00 00                             add     [eax],al
 3879  00 00                             add     [eax],al
 387b  00 00                             add     [eax],al
 387d  00 00                             add     [eax],al
 387f  00 00                             add     [eax],al
 3881  00 00                             add     [eax],al
 3883  00 00                             add     [eax],al
 3885  00 00                             add     [eax],al
 3887  00 00                             add     [eax],al
 3889  00 00                             add     [eax],al
 388b  00 00                             add     [eax],al
 388d  00 00                             add     [eax],al
 388f  00 00                             add     [eax],al
 3891  00 00                             add     [eax],al
 3893  00 00                             add     [eax],al
 3895  00 00                             add     [eax],al
 3897  00 00                             add     [eax],al
 3899  00 00                             add     [eax],al
 389b  00 00                             add     [eax],al
 389d  00 00                             add     [eax],al
 389f  00 00                             add     [eax],al
 38a1  00 00                             add     [eax],al
 38a3  00 00                             add     [eax],al
 38a5  00 00                             add     [eax],al
 38a7  00 00                             add     [eax],al
 38a9  00 00                             add     [eax],al
 38ab  00 00                             add     [eax],al
 38ad  00 00                             add     [eax],al
 38af  00 00                             add     [eax],al
 38b1  00 00                             add     [eax],al
 38b3  00 00                             add     [eax],al
 38b5  00 00                             add     [eax],al
 38b7  00 00                             add     [eax],al
 38b9  00 00                             add     [eax],al
 38bb  00 00                             add     [eax],al
 38bd  00 00                             add     [eax],al
 38bf  00 00                             add     [eax],al
 38c1  00 00                             add     [eax],al
 38c3  00 00                             add     [eax],al
 38c5  00 00                             add     [eax],al
 38c7  00 00                             add     [eax],al
 38c9  00 00                             add     [eax],al
 38cb  00 00                             add     [eax],al
 38cd  00 00                             add     [eax],al
 38cf  00 00                             add     [eax],al
 38d1  00 00                             add     [eax],al
 38d3  00 00                             add     [eax],al
 38d5  00 00                             add     [eax],al
 38d7  00 00                             add     [eax],al
 38d9  00 00                             add     [eax],al
 38db  00 00                             add     [eax],al
 38dd  00 00                             add     [eax],al
 38df  00 00                             add     [eax],al
 38e1  00 00                             add     [eax],al
 38e3  00 00                             add     [eax],al
 38e5  00 00                             add     [eax],al
 38e7  00 00                             add     [eax],al
 38e9  00 00                             add     [eax],al
 38eb  00 00                             add     [eax],al
 38ed  00 00                             add     [eax],al
 38ef  00 00                             add     [eax],al
 38f1  00 00                             add     [eax],al
 38f3  00 00                             add     [eax],al
 38f5  00 00                             add     [eax],al
 38f7  00 00                             add     [eax],al
 38f9  00 00                             add     [eax],al
 38fb  00 00                             add     [eax],al
 38fd  00 00                             add     [eax],al
 38ff  00 00                             add     [eax],al
 3901  00 00                             add     [eax],al
 3903  00 00                             add     [eax],al
 3905  00 00                             add     [eax],al
 3907  00 00                             add     [eax],al
 3909  00 00                             add     [eax],al
 390b  00 00                             add     [eax],al
 390d  00 00                             add     [eax],al
 390f  00 00                             add     [eax],al
 3911  00 00                             add     [eax],al
 3913  00 00                             add     [eax],al
 3915  00 00                             add     [eax],al
 3917  00 00                             add     [eax],al
 3919  00 00                             add     [eax],al
 391b  00 00                             add     [eax],al
 391d  00 00                             add     [eax],al
 391f  00 00                             add     [eax],al
 3921  00 00                             add     [eax],al
 3923  00 00                             add     [eax],al
 3925  00 00                             add     [eax],al
 3927  00 00                             add     [eax],al
 3929  00 00                             add     [eax],al
 392b  00 00                             add     [eax],al
 392d  00 00                             add     [eax],al
 392f  00 00                             add     [eax],al
 3931  00 00                             add     [eax],al
 3933  00 00                             add     [eax],al
 3935  00 00                             add     [eax],al
 3937  00 00                             add     [eax],al
 3939  00 00                             add     [eax],al
 393b  00 00                             add     [eax],al
 393d  00 00                             add     [eax],al
 393f  00 00                             add     [eax],al
 3941  00 00                             add     [eax],al
 3943  00 00                             add     [eax],al
 3945  00 00             L318            add     [eax],al
 3947  00 00                             add     [eax],al
 3949  00 00             L319            add     [eax],al
 394b  00 00                             add     [eax],al
 394d  00 00             L320            add     [eax],al
 394f  00 00                             add     [eax],al
 3951  00 00             L321            add     [eax],al
 3953  00 00                             add     [eax],al
 3955  00 00                             add     [eax],al
 3957  00 00                             add     [eax],al
 3959  00 00                             add     [eax],al
 395b  00 00                             add     [eax],al
 395d  00 00                             add     [eax],al
 395f  00 00                             add     [eax],al
 3961  00 00                             add     [eax],al
 3963  00 00                             add     [eax],al
 3965  00 00                             add     [eax],al
 3967  00 00                             add     [eax],al
 3969  00 00                             add     [eax],al
 396b  00 00                             add     [eax],al
 396d  00 00                             add     [eax],al
 396f  00 00                             add     [eax],al
 3971  00 00                             add     [eax],al
 3973  00 00                             add     [eax],al
 3975  00 00                             add     [eax],al
 3977  00 00                             add     [eax],al
 3979  00 00                             add     [eax],al
 397b  00 00                             add     [eax],al
 397d  00 00                             add     [eax],al
 397f  00 00                             add     [eax],al
 3981  00 00                             add     [eax],al
 3983  00 00                             add     [eax],al
 3985  00 00                             add     [eax],al
 3987  00 00                             add     [eax],al
 3989  00 00                             add     [eax],al
 398b  00 00                             add     [eax],al
 398d  00 00                             add     [eax],al
 398f  00 00                             add     [eax],al
 3991  00 00                             add     [eax],al
 3993  00 00                             add     [eax],al
 3995  00 00                             add     [eax],al
 3997  00 00                             add     [eax],al
 3999  00 00                             add     [eax],al
 399b  00 00                             add     [eax],al
 399d  00 00                             add     [eax],al
 399f  00 00                             add     [eax],al
 39a1  00 00                             add     [eax],al
 39a3  00 00                             add     [eax],al
 39a5  00 00                             add     [eax],al
 39a7  00 00                             add     [eax],al
 39a9  00 00                             add     [eax],al
 39ab  00 00                             add     [eax],al
 39ad  00 00                             add     [eax],al
 39af  00 00                             add     [eax],al
 39b1  00 00                             add     [eax],al
 39b3  00 00                             add     [eax],al
 39b5  00 00                             add     [eax],al
 39b7  00 00                             add     [eax],al
 39b9  00 00                             add     [eax],al
 39bb  00 00                             add     [eax],al
 39bd  00 00                             add     [eax],al
 39bf  00 00                             add     [eax],al
 39c1  00 00                             add     [eax],al
 39c3  00 00                             add     [eax],al
 39c5  00 00                             add     [eax],al
 39c7  00 00                             add     [eax],al
 39c9  00 00                             add     [eax],al
 39cb  00 00                             add     [eax],al
 39cd  00 00                             add     [eax],al
 39cf  00 00                             add     [eax],al
 39d1  00 00                             add     [eax],al
 39d3  00 00                             add     [eax],al
 39d5  00 00                             add     [eax],al
 39d7  00 00                             add     [eax],al
 39d9  00 00                             add     [eax],al
 39db  00 00                             add     [eax],al
 39dd  00 00                             add     [eax],al
 39df  00 00                             add     [eax],al
 39e1  00 00                             add     [eax],al
 39e3  00 00                             add     [eax],al
 39e5  00 00                             add     [eax],al
 39e7  00 00                             add     [eax],al
 39e9  00 00                             add     [eax],al
 39eb  00 00                             add     [eax],al
 39ed  00 00                             add     [eax],al
 39ef  00 00                             add     [eax],al
 39f1  00 00                             add     [eax],al
 39f3  00 00                             add     [eax],al
 39f5  00 00                             add     [eax],al
 39f7  00 00                             add     [eax],al
 39f9  00 00                             add     [eax],al
 39fb  00 00                             add     [eax],al
 39fd  00 00                             add     [eax],al
 39ff  00 00                             add     [eax],al
 3a01  00 00                             add     [eax],al
 3a03  00 00                             add     [eax],al
 3a05  00 00                             add     [eax],al
 3a07  00 00                             add     [eax],al
 3a09  00 00                             add     [eax],al
 3a0b  00 00                             add     [eax],al
 3a0d  00 00                             add     [eax],al
 3a0f  00 00                             add     [eax],al
 3a11  00 00                             add     [eax],al
 3a13  00 00                             add     [eax],al
 3a15  00 00                             add     [eax],al
 3a17  00 00                             add     [eax],al
 3a19  00 00                             add     [eax],al
 3a1b  00 00                             add     [eax],al
 3a1d  00 00                             add     [eax],al
 3a1f  00 00                             add     [eax],al
 3a21  00 00                             add     [eax],al
 3a23  00 00                             add     [eax],al
 3a25  00 00                             add     [eax],al
 3a27  00 00                             add     [eax],al
 3a29  00 00                             add     [eax],al
 3a2b  00 00                             add     [eax],al
 3a2d  00 00                             add     [eax],al
 3a2f  00 00                             add     [eax],al
 3a31  00 00                             add     [eax],al
 3a33  00 00                             add     [eax],al
 3a35  00 00                             add     [eax],al
 3a37  00 00                             add     [eax],al
 3a39  00 00                             add     [eax],al
 3a3b  00 00                             add     [eax],al
 3a3d  00 00                             add     [eax],al
 3a3f  00 00                             add     [eax],al
 3a41  00 00                             add     [eax],al
 3a43  00 00                             add     [eax],al
 3a45  00 00                             add     [eax],al
 3a47  00 00                             add     [eax],al
 3a49  00 00                             add     [eax],al
 3a4b  00 00                             add     [eax],al
 3a4d  00 00                             add     [eax],al
 3a4f  00 00                             add     [eax],al
 3a51  00 00                             add     [eax],al
 3a53  00 00                             add     [eax],al
 3a55  00 00                             add     [eax],al
 3a57  00 00                             add     [eax],al
 3a59  00 00                             add     [eax],al
 3a5b  00 00                             add     [eax],al
 3a5d  00 00                             add     [eax],al
 3a5f  00 00                             add     [eax],al
 3a61  00 00                             add     [eax],al
 3a63  00 00                             add     [eax],al
 3a65  00 00                             add     [eax],al
 3a67  00 00                             add     [eax],al
 3a69  00 00                             add     [eax],al
 3a6b  00 00                             add     [eax],al
 3a6d  00 00                             add     [eax],al
 3a6f  00 00                             add     [eax],al
 3a71  00 00                             add     [eax],al
 3a73  00 00                             add     [eax],al
 3a75  00 00                             add     [eax],al
 3a77  00 00                             add     [eax],al
 3a79  00 00                             add     [eax],al
 3a7b  00 00                             add     [eax],al
 3a7d  00 00                             add     [eax],al
 3a7f  00 00                             add     [eax],al
 3a81  00 00                             add     [eax],al
 3a83  00 00                             add     [eax],al
 3a85  00 00                             add     [eax],al
 3a87  00 00                             add     [eax],al
 3a89  00 00                             add     [eax],al
 3a8b  00 00                             add     [eax],al
 3a8d  00 00                             add     [eax],al
 3a8f  00 00                             add     [eax],al
 3a91  00 00                             add     [eax],al
 3a93  00 00                             add     [eax],al
 3a95  00 00                             add     [eax],al
 3a97  00 00                             add     [eax],al
 3a99  00 00                             add     [eax],al
 3a9b  00 00                             add     [eax],al
 3a9d  00 00                             add     [eax],al
 3a9f  00 00                             add     [eax],al
 3aa1  00 00                             add     [eax],al
 3aa3  00 00                             add     [eax],al
 3aa5  00 00                             add     [eax],al
 3aa7  00 00                             add     [eax],al
 3aa9  00 00                             add     [eax],al
 3aab  00 00                             add     [eax],al
 3aad  00 00                             add     [eax],al
 3aaf  00 00                             add     [eax],al
 3ab1  00 00                             add     [eax],al
 3ab3  00 00                             add     [eax],al
 3ab5  00 00                             add     [eax],al
 3ab7  00 00                             add     [eax],al
 3ab9  00 00                             add     [eax],al
 3abb  00 00                             add     [eax],al
 3abd  00 00                             add     [eax],al
 3abf  00 00                             add     [eax],al
 3ac1  00 00                             add     [eax],al
 3ac3  00 00                             add     [eax],al
 3ac5  00 00                             add     [eax],al
 3ac7  00 00                             add     [eax],al
 3ac9  00 00                             add     [eax],al
 3acb  00 00                             add     [eax],al
 3acd  00 00                             add     [eax],al
 3acf  00 00                             add     [eax],al
 3ad1  00 00                             add     [eax],al
 3ad3  00 00                             add     [eax],al
 3ad5  00 00                             add     [eax],al
 3ad7  00 00                             add     [eax],al
 3ad9  00 00                             add     [eax],al
 3adb  00 00                             add     [eax],al
 3add  00 00                             add     [eax],al
 3adf  00 00                             add     [eax],al
 3ae1  00 00                             add     [eax],al
 3ae3  00 00                             add     [eax],al
 3ae5  00 00                             add     [eax],al
 3ae7  00 00                             add     [eax],al
 3ae9  00 00                             add     [eax],al
 3aeb  00 00                             add     [eax],al
 3aed  00 00                             add     [eax],al
 3aef  00 00                             add     [eax],al
 3af1  00 00                             add     [eax],al
 3af3  00 00                             add     [eax],al
 3af5  00 00                             add     [eax],al
 3af7  00 00                             add     [eax],al
 3af9  00 00                             add     [eax],al
 3afb  00 00                             add     [eax],al
 3afd  00 00                             add     [eax],al
 3aff  00 00                             add     [eax],al
 3b01  00 00                             add     [eax],al
 3b03  00 00                             add     [eax],al
 3b05  00 00                             add     [eax],al
 3b07  00 00                             add     [eax],al
 3b09  00 00                             add     [eax],al
 3b0b  00 00                             add     [eax],al
 3b0d  00 00                             add     [eax],al
 3b0f  00 00                             add     [eax],al
 3b11  00 00                             add     [eax],al
 3b13  00 00                             add     [eax],al
 3b15  00 00                             add     [eax],al
 3b17  00 00                             add     [eax],al
 3b19  00 00                             add     [eax],al
 3b1b  00 00                             add     [eax],al
 3b1d  00 00                             add     [eax],al
 3b1f  00 00                             add     [eax],al
 3b21  00 00                             add     [eax],al
 3b23  00 00                             add     [eax],al
 3b25  00 00                             add     [eax],al
 3b27  00 00                             add     [eax],al
 3b29  00 00                             add     [eax],al
 3b2b  00 00                             add     [eax],al
 3b2d  00 00                             add     [eax],al
 3b2f  00 00                             add     [eax],al
 3b31  00 00                             add     [eax],al
 3b33  00 00                             add     [eax],al
 3b35  00 00                             add     [eax],al
 3b37  00 00                             add     [eax],al
 3b39  00 00                             add     [eax],al
 3b3b  00 00                             add     [eax],al
 3b3d  00 00                             add     [eax],al
 3b3f  00 00                             add     [eax],al
 3b41  00 00                             add     [eax],al
 3b43  00 00                             add     [eax],al
 3b45  00 00                             add     [eax],al
 3b47  00 00                             add     [eax],al
 3b49  00 00                             add     [eax],al
 3b4b  00 00                             add     [eax],al
 3b4d  00 00                             add     [eax],al
 3b4f  00 00                             add     [eax],al
 3b51  00 00                             add     [eax],al
 3b53  00 00                             add     [eax],al
 3b55  00 00                             add     [eax],al
 3b57  00 00                             add     [eax],al
 3b59  00 00                             add     [eax],al
 3b5b  00 00                             add     [eax],al
 3b5d  00 00                             add     [eax],al
 3b5f  00 00                             add     [eax],al
 3b61  00 00                             add     [eax],al
 3b63  00 00                             add     [eax],al
 3b65  00 00                             add     [eax],al
 3b67  00 00                             add     [eax],al
 3b69  00 00                             add     [eax],al
 3b6b  00 00                             add     [eax],al
 3b6d  00 00                             add     [eax],al
 3b6f  00 00                             add     [eax],al
 3b71  00 00                             add     [eax],al
 3b73  00 00                             add     [eax],al
 3b75  00 00                             add     [eax],al
 3b77  00 00                             add     [eax],al
 3b79  00 00                             add     [eax],al
 3b7b  00 00                             add     [eax],al
 3b7d  00 00                             add     [eax],al
 3b7f  00 00                             add     [eax],al
 3b81  00 00                             add     [eax],al
 3b83  00 00                             add     [eax],al
 3b85  00 00                             add     [eax],al
 3b87  00 00                             add     [eax],al
 3b89  00 00                             add     [eax],al
 3b8b  00 00                             add     [eax],al
 3b8d  00 00                             add     [eax],al
 3b8f  00 00                             add     [eax],al
 3b91  00 00                             add     [eax],al
 3b93  00 00                             add     [eax],al
 3b95  00 00                             add     [eax],al
 3b97  00 00                             add     [eax],al
 3b99  00 00                             add     [eax],al
 3b9b  00 00                             add     [eax],al
 3b9d  00 00                             add     [eax],al
 3b9f  00 00                             add     [eax],al
 3ba1  00 00                             add     [eax],al
 3ba3  00 00                             add     [eax],al
 3ba5  00 00                             add     [eax],al
 3ba7  00 00                             add     [eax],al
 3ba9  00 00                             add     [eax],al
 3bab  00 00                             add     [eax],al
 3bad  00 00                             add     [eax],al
 3baf  00 00                             add     [eax],al
 3bb1  00 00                             add     [eax],al
 3bb3  00 00                             add     [eax],al
 3bb5  00 00                             add     [eax],al
 3bb7  00 00                             add     [eax],al
 3bb9  00 00                             add     [eax],al
 3bbb  00 00                             add     [eax],al
 3bbd  00 00                             add     [eax],al
 3bbf  00 00                             add     [eax],al
 3bc1  00 00                             add     [eax],al
 3bc3  00 00                             add     [eax],al
 3bc5  00 00                             add     [eax],al
 3bc7  00 00                             add     [eax],al
 3bc9  00 00                             add     [eax],al
 3bcb  00 00                             add     [eax],al
 3bcd  00 00                             add     [eax],al
 3bcf  00 00                             add     [eax],al
 3bd1  00 00                             add     [eax],al
 3bd3  00 00                             add     [eax],al
 3bd5  00 00                             add     [eax],al
 3bd7  00 00                             add     [eax],al
 3bd9  00 00                             add     [eax],al
 3bdb  00 00                             add     [eax],al
 3bdd  00 00                             add     [eax],al
 3bdf  00 00                             add     [eax],al
 3be1  00 00                             add     [eax],al
 3be3  00 00                             add     [eax],al
 3be5  00 00                             add     [eax],al
 3be7  00 00                             add     [eax],al
 3be9  00 00                             add     [eax],al
 3beb  00 00                             add     [eax],al
 3bed  00 00                             add     [eax],al
 3bef  00 00                             add     [eax],al
 3bf1  00 00                             add     [eax],al
 3bf3  00 00                             add     [eax],al
 3bf5  00 00                             add     [eax],al
 3bf7  00 00                             add     [eax],al
 3bf9  00 00                             add     [eax],al
 3bfb  00 00                             add     [eax],al
 3bfd  00 00                             add     [eax],al
 3bff  00 00                             add     [eax],al
 3c01  00 00                             add     [eax],al
 3c03  00 00                             add     [eax],al
 3c05  00 00                             add     [eax],al
 3c07  00 00                             add     [eax],al
 3c09  00 00                             add     [eax],al
 3c0b  00 00                             add     [eax],al
 3c0d  00 00                             add     [eax],al
 3c0f  00 00                             add     [eax],al
 3c11  00 00                             add     [eax],al
 3c13  00 00                             add     [eax],al
 3c15  00 00                             add     [eax],al
 3c17  00 00                             add     [eax],al
 3c19  00 00                             add     [eax],al
 3c1b  00 00                             add     [eax],al
 3c1d  00 00                             add     [eax],al
 3c1f  00 00                             add     [eax],al
 3c21  00 00                             add     [eax],al
 3c23  00 00                             add     [eax],al
 3c25  00 00                             add     [eax],al
 3c27  00 00                             add     [eax],al
 3c29  00 00                             add     [eax],al
 3c2b  00 00                             add     [eax],al
 3c2d  00 00                             add     [eax],al
 3c2f  00 00                             add     [eax],al
 3c31  00 00                             add     [eax],al
 3c33  00 00                             add     [eax],al
 3c35  00 00                             add     [eax],al
 3c37  00 00                             add     [eax],al
 3c39  00 00                             add     [eax],al
 3c3b  00 00                             add     [eax],al
 3c3d  00 00                             add     [eax],al
 3c3f  00 00                             add     [eax],al
 3c41  00 00                             add     [eax],al
 3c43  00 00                             add     [eax],al
 3c45  00 00                             add     [eax],al
 3c47  00 00                             add     [eax],al
 3c49  00 00                             add     [eax],al
 3c4b  00 00                             add     [eax],al
 3c4d  00 00                             add     [eax],al
 3c4f  00 00                             add     [eax],al
 3c51  00 00                             add     [eax],al
 3c53  00 00                             add     [eax],al
 3c55  00 00                             add     [eax],al
 3c57  00 00                             add     [eax],al
 3c59  00 00                             add     [eax],al
 3c5b  00 00                             add     [eax],al
 3c5d  00 00                             add     [eax],al
 3c5f  00 00                             add     [eax],al
 3c61  00 00                             add     [eax],al
 3c63  00 00                             add     [eax],al
 3c65  00 00                             add     [eax],al
 3c67  00 00                             add     [eax],al
 3c69  00 00                             add     [eax],al
 3c6b  00 00                             add     [eax],al
 3c6d  00 00                             add     [eax],al
 3c6f  00 00                             add     [eax],al
 3c71  00 00                             add     [eax],al
 3c73  00 00                             add     [eax],al
 3c75  00 00                             add     [eax],al
 3c77  00 00                             add     [eax],al
 3c79  00 00                             add     [eax],al
 3c7b  00 00                             add     [eax],al
 3c7d  00 00                             add     [eax],al
 3c7f  00 00                             add     [eax],al
 3c81  00 00                             add     [eax],al
 3c83  00 00                             add     [eax],al
 3c85  00 00                             add     [eax],al
 3c87  00 00                             add     [eax],al
 3c89  00 00                             add     [eax],al
 3c8b  00 00                             add     [eax],al
 3c8d  00 00                             add     [eax],al
 3c8f  00 00                             add     [eax],al
 3c91  00 00                             add     [eax],al
 3c93  00 00                             add     [eax],al
 3c95  00 00                             add     [eax],al
 3c97  00 00                             add     [eax],al
 3c99  00 00                             add     [eax],al
 3c9b  00 00                             add     [eax],al
 3c9d  00 00                             add     [eax],al
 3c9f  00 00                             add     [eax],al
 3ca1  00 00                             add     [eax],al
 3ca3  00 00                             add     [eax],al
 3ca5  00 00                             add     [eax],al
 3ca7  00 00                             add     [eax],al
 3ca9  00 00                             add     [eax],al
 3cab  00 00                             add     [eax],al
 3cad  00 00                             add     [eax],al
 3caf  00 00                             add     [eax],al
 3cb1  00 00                             add     [eax],al
 3cb3  00 00                             add     [eax],al
 3cb5  00 00                             add     [eax],al
 3cb7  00 00                             add     [eax],al
 3cb9  00 00                             add     [eax],al
 3cbb  00 00                             add     [eax],al
 3cbd  00 00                             add     [eax],al
 3cbf  00 00                             add     [eax],al
 3cc1  00 00                             add     [eax],al
 3cc3  00 00                             add     [eax],al
 3cc5  00 00                             add     [eax],al
 3cc7  00 00                             add     [eax],al
 3cc9  00 00                             add     [eax],al
 3ccb  00 00                             add     [eax],al
 3ccd  00 00                             add     [eax],al
 3ccf  00 00                             add     [eax],al
 3cd1  00 00                             add     [eax],al
 3cd3  00 00                             add     [eax],al
 3cd5  00 00                             add     [eax],al
 3cd7  00 00                             add     [eax],al
 3cd9  00 00                             add     [eax],al
 3cdb  00 00                             add     [eax],al
 3cdd  00 00                             add     [eax],al
 3cdf  00 00                             add     [eax],al
 3ce1  00 00                             add     [eax],al
 3ce3  00 00                             add     [eax],al
 3ce5  00 00                             add     [eax],al
 3ce7  00 00                             add     [eax],al
 3ce9  00 00                             add     [eax],al
 3ceb  00 00                             add     [eax],al
 3ced  00 00                             add     [eax],al
 3cef  00 00                             add     [eax],al
 3cf1  00 00                             add     [eax],al
 3cf3  00 00                             add     [eax],al
 3cf5  00 00                             add     [eax],al
 3cf7  00 00                             add     [eax],al
 3cf9  00 00                             add     [eax],al
 3cfb  00 00                             add     [eax],al
 3cfd  00 00                             add     [eax],al
 3cff  00 00                             add     [eax],al
 3d01  00 00                             add     [eax],al
 3d03  00 00                             add     [eax],al
 3d05  00 00                             add     [eax],al
 3d07  00 00                             add     [eax],al
 3d09  00 00                             add     [eax],al
 3d0b  00 00                             add     [eax],al
 3d0d  00 00                             add     [eax],al
 3d0f  00 00                             add     [eax],al
 3d11  00 00                             add     [eax],al
 3d13  00 00                             add     [eax],al
 3d15  00 00                             add     [eax],al
 3d17  00 00                             add     [eax],al
 3d19  00 00                             add     [eax],al
 3d1b  00 00                             add     [eax],al
 3d1d  00 00                             add     [eax],al
 3d1f  00 00                             add     [eax],al
 3d21  00 00                             add     [eax],al
 3d23  00 00                             add     [eax],al
 3d25  00 00                             add     [eax],al
 3d27  00 00                             add     [eax],al
 3d29  00 00                             add     [eax],al
 3d2b  00 00                             add     [eax],al
 3d2d  00 00                             add     [eax],al
 3d2f  00 00                             add     [eax],al
 3d31  00 00                             add     [eax],al
 3d33  00 00                             add     [eax],al
 3d35  00 00                             add     [eax],al
 3d37  00 00                             add     [eax],al
 3d39  00 00                             add     [eax],al
 3d3b  00 00                             add     [eax],al
 3d3d  00 00                             add     [eax],al
 3d3f  00 00                             add     [eax],al
 3d41  00 00                             add     [eax],al
 3d43  00 00                             add     [eax],al
 3d45  00 00                             add     [eax],al
 3d47  00 00                             add     [eax],al
 3d49  00 00                             add     [eax],al
 3d4b  00 00                             add     [eax],al
 3d4d  00 00                             add     [eax],al
 3d4f  00 00                             add     [eax],al
 3d51  00 00                             add     [eax],al
 3d53  00 00                             add     [eax],al
 3d55  00 00                             add     [eax],al
 3d57  00 00                             add     [eax],al
 3d59  00 00                             add     [eax],al
 3d5b  00 00                             add     [eax],al
 3d5d  00 00                             add     [eax],al
 3d5f  00 00                             add     [eax],al
 3d61  00 00                             add     [eax],al
 3d63  00 00                             add     [eax],al
 3d65  00 00                             add     [eax],al
 3d67  00 00                             add     [eax],al
 3d69  00 00                             add     [eax],al
 3d6b  00 00                             add     [eax],al
 3d6d  00 00                             add     [eax],al
 3d6f  00 00                             add     [eax],al
 3d71  00 00                             add     [eax],al
 3d73  00 00                             add     [eax],al
 3d75  00 00                             add     [eax],al
 3d77  00 00                             add     [eax],al
 3d79  00 00                             add     [eax],al
 3d7b  00 00                             add     [eax],al
 3d7d  00 00                             add     [eax],al
 3d7f  00 00                             add     [eax],al
 3d81  00 00                             add     [eax],al
 3d83  00 00                             add     [eax],al
 3d85  00 00                             add     [eax],al
 3d87  00 00                             add     [eax],al
 3d89  00 00                             add     [eax],al
 3d8b  00 00                             add     [eax],al
 3d8d  00 00                             add     [eax],al
 3d8f  00 00                             add     [eax],al
 3d91  00 00                             add     [eax],al
 3d93  00 00                             add     [eax],al
 3d95  00 00                             add     [eax],al
 3d97  00 00                             add     [eax],al
 3d99  00 00                             add     [eax],al
 3d9b  00 00                             add     [eax],al
 3d9d  00 00                             add     [eax],al
 3d9f  00 00                             add     [eax],al
 3da1  00 00                             add     [eax],al
 3da3  00 00                             add     [eax],al
 3da5  00 00                             add     [eax],al
 3da7  00 00                             add     [eax],al
 3da9  00 00                             add     [eax],al
 3dab  00 00                             add     [eax],al
 3dad  00 00                             add     [eax],al
 3daf  00 00                             add     [eax],al
 3db1  00 00                             add     [eax],al
 3db3  00 00                             add     [eax],al
 3db5  00 00                             add     [eax],al
 3db7  00 00                             add     [eax],al
 3db9  00 00                             add     [eax],al
 3dbb  00 00                             add     [eax],al
 3dbd  00 00                             add     [eax],al
 3dbf  00 00                             add     [eax],al
 3dc1  00 00                             add     [eax],al
 3dc3  00 00                             add     [eax],al
 3dc5  00 00                             add     [eax],al
 3dc7  00 00                             add     [eax],al
 3dc9  00 00                             add     [eax],al
 3dcb  00 00                             add     [eax],al
 3dcd  00 00                             add     [eax],al
 3dcf  00 00                             add     [eax],al
 3dd1  00 00                             add     [eax],al
 3dd3  00 00                             add     [eax],al
 3dd5  00 00                             add     [eax],al
 3dd7  00 00                             add     [eax],al
 3dd9  00 00                             add     [eax],al
 3ddb  00 00                             add     [eax],al
 3ddd  00 00                             add     [eax],al
 3ddf  00 00                             add     [eax],al
 3de1  00 00                             add     [eax],al
 3de3  00 00                             add     [eax],al
 3de5  00 00                             add     [eax],al
 3de7  00 00                             add     [eax],al
 3de9  00 00                             add     [eax],al
 3deb  00 00                             add     [eax],al
 3ded  00 00                             add     [eax],al
 3def  00 00                             add     [eax],al
 3df1  00 00                             add     [eax],al
 3df3  00 00                             add     [eax],al
 3df5  00 00                             add     [eax],al
 3df7  00 00                             add     [eax],al
 3df9  00 00                             add     [eax],al
 3dfb  00 00                             add     [eax],al
 3dfd  00 00                             add     [eax],al
 3dff  00 00                             add     [eax],al
 3e01  00 00                             add     [eax],al
 3e03  00 00                             add     [eax],al
 3e05  00 00                             add     [eax],al
 3e07  00 00                             add     [eax],al
 3e09  00 00                             add     [eax],al
 3e0b  00 00                             add     [eax],al
 3e0d  00 00                             add     [eax],al
 3e0f  00 00                             add     [eax],al
 3e11  00 00                             add     [eax],al
 3e13  00 00                             add     [eax],al
 3e15  00 00                             add     [eax],al
 3e17  00 00                             add     [eax],al
 3e19  00 00                             add     [eax],al
 3e1b  00 00                             add     [eax],al
 3e1d  00 00                             add     [eax],al
 3e1f  00 00                             add     [eax],al
 3e21  00 00                             add     [eax],al
 3e23  00 00                             add     [eax],al
 3e25  00 00                             add     [eax],al
 3e27  00 00                             add     [eax],al
 3e29  00 00                             add     [eax],al
 3e2b  00 00                             add     [eax],al
 3e2d  00 00                             add     [eax],al
 3e2f  00 00                             add     [eax],al
 3e31  00 00                             add     [eax],al
 3e33  00 00                             add     [eax],al
 3e35  00 00                             add     [eax],al
 3e37  00 00                             add     [eax],al
 3e39  00 00                             add     [eax],al
 3e3b  00 00                             add     [eax],al
 3e3d  00 00                             add     [eax],al
 3e3f  00 00                             add     [eax],al
 3e41  00 00                             add     [eax],al
 3e43  00 00                             add     [eax],al
 3e45  00 00                             add     [eax],al
 3e47  00 00                             add     [eax],al
 3e49  00 00                             add     [eax],al
 3e4b  00 00                             add     [eax],al
 3e4d  00 00                             add     [eax],al
 3e4f  00 00                             add     [eax],al
 3e51  00 00                             add     [eax],al
 3e53  00 00                             add     [eax],al
 3e55  00 00                             add     [eax],al
 3e57  00 00                             add     [eax],al
 3e59  00 00                             add     [eax],al
 3e5b  00 00                             add     [eax],al
 3e5d  00 00                             add     [eax],al
 3e5f  00 00                             add     [eax],al
 3e61  00 00                             add     [eax],al
 3e63  00 00                             add     [eax],al
 3e65  00 00                             add     [eax],al
 3e67  00 00                             add     [eax],al
 3e69  00 00                             add     [eax],al
 3e6b  00 00                             add     [eax],al
 3e6d  00 00                             add     [eax],al
 3e6f  00 00                             add     [eax],al
 3e71  00 00                             add     [eax],al
 3e73  00 00                             add     [eax],al
 3e75  00 00                             add     [eax],al
 3e77  00 00                             add     [eax],al
 3e79  00 00                             add     [eax],al
 3e7b  00 00                             add     [eax],al
 3e7d  00 00                             add     [eax],al
 3e7f  00 00                             add     [eax],al
 3e81  00 00                             add     [eax],al
 3e83  00 00                             add     [eax],al
 3e85  00 00                             add     [eax],al
 3e87  00 00                             add     [eax],al
 3e89  00 00                             add     [eax],al
 3e8b  00 00                             add     [eax],al
 3e8d  00 00                             add     [eax],al
 3e8f  00 00                             add     [eax],al
 3e91  00 00                             add     [eax],al
 3e93  00 00                             add     [eax],al
 3e95  00 00                             add     [eax],al
 3e97  00 00                             add     [eax],al
 3e99  00 00                             add     [eax],al
 3e9b  00 00                             add     [eax],al
 3e9d  00 00                             add     [eax],al
 3e9f  00 00                             add     [eax],al
 3ea1  00 00                             add     [eax],al
 3ea3  00 00                             add     [eax],al
 3ea5  00 00                             add     [eax],al
 3ea7  00 00                             add     [eax],al
 3ea9  00 00                             add     [eax],al
 3eab  00 00                             add     [eax],al
 3ead  00 00                             add     [eax],al
 3eaf  00 00                             add     [eax],al
 3eb1  00 00                             add     [eax],al
 3eb3  00 00                             add     [eax],al
 3eb5  00 00                             add     [eax],al
 3eb7  00 00                             add     [eax],al
 3eb9  00 00                             add     [eax],al
 3ebb  00 00                             add     [eax],al
 3ebd  00 00                             add     [eax],al
 3ebf  00 00                             add     [eax],al
 3ec1  00 00                             add     [eax],al
 3ec3  00 00                             add     [eax],al
 3ec5  00 00                             add     [eax],al
 3ec7  00 00                             add     [eax],al
 3ec9  00 00                             add     [eax],al
 3ecb  00 00                             add     [eax],al
 3ecd  00 00                             add     [eax],al
 3ecf  00 00                             add     [eax],al
 3ed1  00 00                             add     [eax],al
 3ed3  00 00                             add     [eax],al
 3ed5  00 00                             add     [eax],al
 3ed7  00 00                             add     [eax],al
 3ed9  00 00                             add     [eax],al
 3edb  00 00                             add     [eax],al
 3edd  00 00                             add     [eax],al
 3edf  00 00                             add     [eax],al
 3ee1  00 00                             add     [eax],al
 3ee3  00 00                             add     [eax],al
 3ee5  00 00                             add     [eax],al
 3ee7  00 00                             add     [eax],al
 3ee9  00 00                             add     [eax],al
 3eeb  00 00                             add     [eax],al
 3eed  00 00                             add     [eax],al
 3eef  00 00                             add     [eax],al
 3ef1  00 00                             add     [eax],al
 3ef3  00 00                             add     [eax],al
 3ef5  00 00                             add     [eax],al
 3ef7  00 00                             add     [eax],al
 3ef9  00 00                             add     [eax],al
 3efb  00 00                             add     [eax],al
 3efd  00 00                             add     [eax],al
 3eff  00 00                             add     [eax],al
 3f01  00 00                             add     [eax],al
 3f03  00 00                             add     [eax],al
 3f05  00 00                             add     [eax],al
 3f07  00 00                             add     [eax],al
 3f09  00 00                             add     [eax],al
 3f0b  00 00                             add     [eax],al
 3f0d  00 00                             add     [eax],al
 3f0f  00 00                             add     [eax],al
 3f11  00 00                             add     [eax],al
 3f13  00 00                             add     [eax],al
 3f15  00 00                             add     [eax],al
 3f17  00 00                             add     [eax],al
 3f19  00 00                             add     [eax],al
 3f1b  00 00                             add     [eax],al
 3f1d  00 00                             add     [eax],al
 3f1f  00 00                             add     [eax],al
 3f21  00 00                             add     [eax],al
 3f23  00 00                             add     [eax],al
 3f25  00 00                             add     [eax],al
 3f27  00 00                             add     [eax],al
 3f29  00 00                             add     [eax],al
 3f2b  00 00                             add     [eax],al
 3f2d  00 00                             add     [eax],al
 3f2f  00 00                             add     [eax],al
 3f31  00 00                             add     [eax],al
 3f33  00 00                             add     [eax],al
 3f35  00 00                             add     [eax],al
 3f37  00 00                             add     [eax],al
 3f39  00 00                             add     [eax],al
 3f3b  00 00                             add     [eax],al
 3f3d  00 00                             add     [eax],al
 3f3f  00 00                             add     [eax],al
 3f41  00 00                             add     [eax],al
 3f43  00 00                             add     [eax],al
 3f45  00 00                             add     [eax],al
 3f47  00 00                             add     [eax],al
 3f49  00 00                             add     [eax],al
 3f4b  00 00                             add     [eax],al
 3f4d  00 00                             add     [eax],al
 3f4f  00 00                             add     [eax],al
 3f51  00 00                             add     [eax],al
 3f53  00 00                             add     [eax],al
 3f55  00 00                             add     [eax],al
 3f57  00 00                             add     [eax],al
 3f59  00 00                             add     [eax],al
 3f5b  00 00                             add     [eax],al
 3f5d  00 00                             add     [eax],al
 3f5f  00 00                             add     [eax],al
 3f61  00 00                             add     [eax],al
 3f63  00 00                             add     [eax],al
 3f65  00 00                             add     [eax],al
 3f67  00 00                             add     [eax],al
 3f69  00 00                             add     [eax],al
 3f6b  00 00                             add     [eax],al
 3f6d  00 00                             add     [eax],al
 3f6f  00 00                             add     [eax],al
 3f71  00 00                             add     [eax],al
 3f73  00 00                             add     [eax],al
 3f75  00 00                             add     [eax],al
 3f77  00 00                             add     [eax],al
 3f79  00 00                             add     [eax],al
 3f7b  00 00                             add     [eax],al
 3f7d  00 00                             add     [eax],al
 3f7f  00 00                             add     [eax],al
 3f81  00 00                             add     [eax],al
 3f83  00 00                             add     [eax],al
 3f85  00 00                             add     [eax],al
 3f87  00 00                             add     [eax],al
 3f89  00 00                             add     [eax],al
 3f8b  00 00                             add     [eax],al
 3f8d  00 00                             add     [eax],al
 3f8f  00 00                             add     [eax],al
 3f91  00 00                             add     [eax],al
 3f93  00 00                             add     [eax],al
 3f95  00 00                             add     [eax],al
 3f97  00 00                             add     [eax],al
 3f99  00 00                             add     [eax],al
 3f9b  00 00                             add     [eax],al
 3f9d  00 00                             add     [eax],al
 3f9f  00 00                             add     [eax],al
 3fa1  00 00                             add     [eax],al
 3fa3  00 00                             add     [eax],al
 3fa5  00 00                             add     [eax],al
 3fa7  00 00                             add     [eax],al
 3fa9  00 00                             add     [eax],al
 3fab  00 00                             add     [eax],al
 3fad  00 00                             add     [eax],al
 3faf  00 00                             add     [eax],al
 3fb1  00 00                             add     [eax],al
 3fb3  00 00                             add     [eax],al
 3fb5  00 00                             add     [eax],al
 3fb7  00 00                             add     [eax],al
 3fb9  00 00                             add     [eax],al
 3fbb  00 00                             add     [eax],al
 3fbd  00 00                             add     [eax],al
 3fbf  00 00                             add     [eax],al
 3fc1  00 00                             add     [eax],al
 3fc3  00 00                             add     [eax],al
 3fc5  00 00                             add     [eax],al
 3fc7  00 00                             add     [eax],al
 3fc9  00 00                             add     [eax],al
 3fcb  00 00                             add     [eax],al
 3fcd  00 00                             add     [eax],al
 3fcf  00 00                             add     [eax],al
 3fd1  00 00                             add     [eax],al
 3fd3  00 00                             add     [eax],al
 3fd5  00 00                             add     [eax],al
 3fd7  00 00                             add     [eax],al
 3fd9  00 00                             add     [eax],al
 3fdb  00 00                             add     [eax],al
 3fdd  00 00                             add     [eax],al
 3fdf  00 00                             add     [eax],al
 3fe1  00 00                             add     [eax],al
 3fe3  00 00                             add     [eax],al
 3fe5  00 00                             add     [eax],al
 3fe7  00 00                             add     [eax],al
 3fe9  00 00                             add     [eax],al
 3feb  00 00                             add     [eax],al
 3fed  00 00                             add     [eax],al
 3fef  00 00                             add     [eax],al
 3ff1  00 00                             add     [eax],al
 3ff3  00 00                             add     [eax],al
 3ff5  00 00                             add     [eax],al
 3ff7  00 00                             add     [eax],al
 3ff9  00 00                             add     [eax],al
 3ffb  00 00                             add     [eax],al
 3ffd  00 00                             add     [eax],al
 3fff  00 00                             add     [eax],al
 4001  00 00                             add     [eax],al
 4003  00 00                             add     [eax],al
 4005  00 00                             add     [eax],al
 4007  00 00                             add     [eax],al
 4009  00 00                             add     [eax],al
 400b  00 00                             add     [eax],al
 400d  00 00                             add     [eax],al
 400f  00 00                             add     [eax],al
 4011  00 00                             add     [eax],al
 4013  00 00                             add     [eax],al
 4015  00 00                             add     [eax],al
 4017  00 00                             add     [eax],al
 4019  00 00                             add     [eax],al
 401b  00 00                             add     [eax],al
 401d  00 00                             add     [eax],al
 401f  00 00                             add     [eax],al
 4021  00 00                             add     [eax],al
 4023  00 00                             add     [eax],al
 4025  00 00                             add     [eax],al
 4027  00 00                             add     [eax],al
 4029  00 00                             add     [eax],al
 402b  00 00                             add     [eax],al
 402d  00 00                             add     [eax],al
 402f  00 00                             add     [eax],al
 4031  00 00                             add     [eax],al
 4033  00 00                             add     [eax],al
 4035  00 00                             add     [eax],al
 4037  00 00                             add     [eax],al
 4039  00 00                             add     [eax],al
 403b  00 00                             add     [eax],al
 403d  00 00                             add     [eax],al
 403f  00 00                             add     [eax],al
 4041  00 00                             add     [eax],al
 4043  00 00                             add     [eax],al
 4045  00 00                             add     [eax],al
 4047  00 00                             add     [eax],al
 4049  00 00                             add     [eax],al
 404b  00 00                             add     [eax],al
 404d  00 00                             add     [eax],al
 404f  00 00                             add     [eax],al
 4051  00 00                             add     [eax],al
 4053  00 00                             add     [eax],al
 4055  00 00                             add     [eax],al
 4057  00 00                             add     [eax],al
 4059  00 00                             add     [eax],al
 405b  00 00                             add     [eax],al
 405d  00 00                             add     [eax],al
 405f  00 00                             add     [eax],al
 4061  00 00                             add     [eax],al
 4063  00 00                             add     [eax],al
 4065  00 00                             add     [eax],al
 4067  00 00                             add     [eax],al
 4069  00 00                             add     [eax],al
 406b  00 00                             add     [eax],al
 406d  00 00                             add     [eax],al
 406f  00 00                             add     [eax],al
 4071  00 00                             add     [eax],al
 4073  00 00                             add     [eax],al
 4075  00 00                             add     [eax],al
 4077  00 00                             add     [eax],al
 4079  00 00                             add     [eax],al
 407b  00 00                             add     [eax],al
 407d  00 00                             add     [eax],al
 407f  00 00                             add     [eax],al
 4081  00 00                             add     [eax],al
 4083  00 00                             add     [eax],al
 4085  00 00                             add     [eax],al
 4087  00 00                             add     [eax],al
 4089  00 00                             add     [eax],al
 408b  00 00                             add     [eax],al
 408d  00 00                             add     [eax],al
 408f  00 00                             add     [eax],al
 4091  00 00                             add     [eax],al
 4093  00 00                             add     [eax],al
 4095  00 00                             add     [eax],al
 4097  00 00                             add     [eax],al
 4099  00 00                             add     [eax],al
 409b  00 00                             add     [eax],al
 409d  00 00                             add     [eax],al
 409f  00 00                             add     [eax],al
 40a1  00 00                             add     [eax],al
 40a3  00 00                             add     [eax],al
 40a5  00 00                             add     [eax],al
 40a7  00 00                             add     [eax],al
 40a9  00 00                             add     [eax],al
 40ab  00 00                             add     [eax],al
 40ad  00 00                             add     [eax],al
 40af  00 00                             add     [eax],al
 40b1  00 00                             add     [eax],al
 40b3  00 00                             add     [eax],al
 40b5  00 00                             add     [eax],al
 40b7  00 00                             add     [eax],al
 40b9  00 00                             add     [eax],al
 40bb  00 00                             add     [eax],al
 40bd  00 00                             add     [eax],al
 40bf  00 00                             add     [eax],al
 40c1  00 00                             add     [eax],al
 40c3  00 00                             add     [eax],al
 40c5  00 00                             add     [eax],al
 40c7  00 00                             add     [eax],al
 40c9  00 00                             add     [eax],al
 40cb  00 00                             add     [eax],al
 40cd  00 00                             add     [eax],al
 40cf  00 00                             add     [eax],al
 40d1  00 00                             add     [eax],al
 40d3  00 00                             add     [eax],al
 40d5  00 00                             add     [eax],al
 40d7  00 00                             add     [eax],al
 40d9  00 00                             add     [eax],al
 40db  00 00                             add     [eax],al
 40dd  00 00                             add     [eax],al
 40df  00 00                             add     [eax],al
 40e1  00 00                             add     [eax],al
 40e3  00 00                             add     [eax],al
 40e5  00 00                             add     [eax],al
 40e7  00 00                             add     [eax],al
 40e9  00 00                             add     [eax],al
 40eb  00 00                             add     [eax],al
 40ed  00 00                             add     [eax],al
 40ef  00 00                             add     [eax],al
 40f1  00 00                             add     [eax],al
 40f3  00 00                             add     [eax],al
 40f5  00 00                             add     [eax],al
 40f7  00 00                             add     [eax],al
 40f9  00 00                             add     [eax],al
 40fb  00 00                             add     [eax],al
 40fd  00 00                             add     [eax],al
 40ff  00 00                             add     [eax],al
 4101  00 00                             add     [eax],al
 4103  00 00                             add     [eax],al
 4105  00 00                             add     [eax],al
 4107  00 00                             add     [eax],al
 4109  00 00                             add     [eax],al
 410b  00 00                             add     [eax],al
 410d  00 00                             add     [eax],al
 410f  00 00                             add     [eax],al
 4111  00 00                             add     [eax],al
 4113  00 00                             add     [eax],al
 4115  00 00                             add     [eax],al
 4117  00 00                             add     [eax],al
 4119  00 00                             add     [eax],al
 411b  00 00                             add     [eax],al
 411d  00 00                             add     [eax],al
 411f  00 00                             add     [eax],al
 4121  00 00                             add     [eax],al
 4123  00 00                             add     [eax],al
 4125  00 00                             add     [eax],al
 4127  00 00                             add     [eax],al
 4129  00 00                             add     [eax],al
 412b  00 00                             add     [eax],al
 412d  00 00                             add     [eax],al
 412f  00 00                             add     [eax],al
 4131  00 00                             add     [eax],al
 4133  00 00                             add     [eax],al
 4135  00 00                             add     [eax],al
 4137  00 00                             add     [eax],al
 4139  00 00                             add     [eax],al
 413b  00 00                             add     [eax],al
 413d  00 00                             add     [eax],al
 413f  00 00                             add     [eax],al
 4141  00 00                             add     [eax],al
 4143  00 00                             add     [eax],al
 4145  00 00                             add     [eax],al
 4147  00 00                             add     [eax],al
 4149  00 00                             add     [eax],al
 414b  00 00                             add     [eax],al
 414d  00 00                             add     [eax],al
 414f  00 00                             add     [eax],al
 4151  00 00                             add     [eax],al
 4153  00 00                             add     [eax],al
 4155  00 00                             add     [eax],al
 4157  00 00                             add     [eax],al
 4159  00 00                             add     [eax],al
 415b  00 00                             add     [eax],al
 415d  00 00                             add     [eax],al
 415f  00 00                             add     [eax],al
 4161  00 00                             add     [eax],al
 4163  00 00                             add     [eax],al
 4165  00 00                             add     [eax],al
 4167  00 00                             add     [eax],al
 4169  00 00                             add     [eax],al
 416b  00 00                             add     [eax],al
 416d  00 00                             add     [eax],al
 416f  00 00                             add     [eax],al
 4171  00 00                             add     [eax],al
 4173  00 00                             add     [eax],al
 4175  00 00                             add     [eax],al
 4177  00 00                             add     [eax],al
 4179  00 00                             add     [eax],al
 417b  00 00                             add     [eax],al
 417d  00 00                             add     [eax],al
 417f  00 00                             add     [eax],al
 4181  00 00                             add     [eax],al
 4183  00 00                             add     [eax],al
 4185  00 00                             add     [eax],al
 4187  00 00                             add     [eax],al
 4189  00 00                             add     [eax],al
 418b  00 00                             add     [eax],al
 418d  00 00                             add     [eax],al
 418f  00 00                             add     [eax],al
 4191  00 00                             add     [eax],al
 4193  00 00                             add     [eax],al
 4195  00 00                             add     [eax],al
 4197  00 00                             add     [eax],al
 4199  00 00                             add     [eax],al
 419b  00 00                             add     [eax],al
 419d  00 00                             add     [eax],al
 419f  00 00                             add     [eax],al
 41a1  00 00                             add     [eax],al
 41a3  00 00                             add     [eax],al
 41a5  00 00                             add     [eax],al
 41a7  00 00                             add     [eax],al
 41a9  00 00                             add     [eax],al
 41ab  00 00                             add     [eax],al
 41ad  00 00                             add     [eax],al
 41af  00 00                             add     [eax],al
 41b1  00 00                             add     [eax],al
 41b3  00 00                             add     [eax],al
 41b5  00 00                             add     [eax],al
 41b7  00 00                             add     [eax],al
 41b9  00 00                             add     [eax],al
 41bb  00 00                             add     [eax],al
 41bd  00 00                             add     [eax],al
 41bf  00 00                             add     [eax],al
 41c1  00 00                             add     [eax],al
 41c3  00 00                             add     [eax],al
 41c5  00 00                             add     [eax],al
 41c7  00 00                             add     [eax],al
 41c9  00 00                             add     [eax],al
 41cb  00 00                             add     [eax],al
 41cd  00 00                             add     [eax],al
 41cf  00 00                             add     [eax],al
 41d1  00 00                             add     [eax],al
 41d3  00 00                             add     [eax],al
 41d5  00 00                             add     [eax],al
 41d7  00 00                             add     [eax],al
 41d9  00 00                             add     [eax],al
 41db  00 00                             add     [eax],al
 41dd  00 00                             add     [eax],al
 41df  00 00                             add     [eax],al
 41e1  00 00                             add     [eax],al
 41e3  00 00                             add     [eax],al
 41e5  00 00                             add     [eax],al
 41e7  00 00                             add     [eax],al
 41e9  00 00                             add     [eax],al
 41eb  00 00                             add     [eax],al
 41ed  00 00                             add     [eax],al
 41ef  00 00                             add     [eax],al
 41f1  00 00                             add     [eax],al
 41f3  00 00                             add     [eax],al
 41f5  00 00                             add     [eax],al
 41f7  00 00                             add     [eax],al
 41f9  00 00                             add     [eax],al
 41fb  00 00                             add     [eax],al
 41fd  00 00                             add     [eax],al
 41ff  00 00                             add     [eax],al
 4201  00 00                             add     [eax],al
 4203  00 00                             add     [eax],al
 4205  00 00                             add     [eax],al
 4207  00 00                             add     [eax],al
 4209  00 00                             add     [eax],al
 420b  00 00                             add     [eax],al
 420d  00 00                             add     [eax],al
 420f  00 00                             add     [eax],al
 4211  00 00                             add     [eax],al
 4213  00 00                             add     [eax],al
 4215  00 00                             add     [eax],al
 4217  00 00                             add     [eax],al
 4219  00 00                             add     [eax],al
 421b  00 00                             add     [eax],al
 421d  00 00                             add     [eax],al
 421f  00 00                             add     [eax],al
 4221  00 00                             add     [eax],al
 4223  00 00                             add     [eax],al
 4225  00 00                             add     [eax],al
 4227  00 00                             add     [eax],al
 4229  00 00                             add     [eax],al
 422b  00 00                             add     [eax],al
 422d  00 00                             add     [eax],al
 422f  00 00                             add     [eax],al
 4231  00 00                             add     [eax],al
 4233  00 00                             add     [eax],al
 4235  00 00                             add     [eax],al
 4237  00 00                             add     [eax],al
 4239  00 00                             add     [eax],al
 423b  00 00                             add     [eax],al
 423d  00 00                             add     [eax],al
 423f  00 00                             add     [eax],al
 4241  00 00                             add     [eax],al
 4243  00 00                             add     [eax],al
 4245  00 00                             add     [eax],al
 4247  00 00                             add     [eax],al
 4249  00 00                             add     [eax],al
 424b  00 00                             add     [eax],al
 424d  00 00                             add     [eax],al
 424f  00 00                             add     [eax],al
 4251  00 00                             add     [eax],al
 4253  00 00                             add     [eax],al
 4255  00 00                             add     [eax],al
 4257  00 00                             add     [eax],al
 4259  00 00                             add     [eax],al
 425b  00 00                             add     [eax],al
 425d  00 00                             add     [eax],al
 425f  00 00                             add     [eax],al
 4261  00 00                             add     [eax],al
 4263  00 00                             add     [eax],al
 4265  00 00                             add     [eax],al
 4267  00 00                             add     [eax],al
 4269  00 00                             add     [eax],al
 426b  00 00                             add     [eax],al
 426d  00 00                             add     [eax],al
 426f  00 00                             add     [eax],al
 4271  00 00                             add     [eax],al
 4273  00 00                             add     [eax],al
 4275  00 00                             add     [eax],al
 4277  00 00                             add     [eax],al
 4279  00 00                             add     [eax],al
 427b  00 00                             add     [eax],al
 427d  00 00                             add     [eax],al
 427f  00 00                             add     [eax],al
 4281  00 00                             add     [eax],al
 4283  00 00                             add     [eax],al
 4285  00 00                             add     [eax],al
 4287  00 00                             add     [eax],al
 4289  00 00                             add     [eax],al
 428b  00 00                             add     [eax],al
 428d  00 00                             add     [eax],al
 428f  00 00                             add     [eax],al
 4291  00 00                             add     [eax],al
 4293  00 00                             add     [eax],al
 4295  00 00                             add     [eax],al
 4297  00 00                             add     [eax],al
 4299  00 00                             add     [eax],al
 429b  00 00                             add     [eax],al
 429d  00 00                             add     [eax],al
 429f  00 00                             add     [eax],al
 42a1  00 00                             add     [eax],al
 42a3  00 00                             add     [eax],al
 42a5  00 00                             add     [eax],al
 42a7  00 00                             add     [eax],al
 42a9  00 00                             add     [eax],al
 42ab  00 00                             add     [eax],al
 42ad  00 00                             add     [eax],al
 42af  00 00                             add     [eax],al
 42b1  00 00                             add     [eax],al
 42b3  00 00                             add     [eax],al
 42b5  00 00                             add     [eax],al
 42b7  00 00                             add     [eax],al
 42b9  00 00                             add     [eax],al
 42bb  00 00                             add     [eax],al
 42bd  00 00                             add     [eax],al
 42bf  00 00                             add     [eax],al
 42c1  00 00                             add     [eax],al
 42c3  00 00                             add     [eax],al
 42c5  00 00                             add     [eax],al
 42c7  00 00                             add     [eax],al
 42c9  00 00                             add     [eax],al
 42cb  00 00                             add     [eax],al
 42cd  00 00                             add     [eax],al
 42cf  00 00                             add     [eax],al
 42d1  00 00                             add     [eax],al
 42d3  00 00                             add     [eax],al
 42d5  00 00                             add     [eax],al
 42d7  00 00                             add     [eax],al
 42d9  00 00                             add     [eax],al
 42db  00 00                             add     [eax],al
 42dd  00 00                             add     [eax],al
 42df  00 00                             add     [eax],al
 42e1  00 00                             add     [eax],al
 42e3  00 00                             add     [eax],al
 42e5  00 00                             add     [eax],al
 42e7  00 00                             add     [eax],al
 42e9  00 00                             add     [eax],al
 42eb  00 00                             add     [eax],al
 42ed  00 00                             add     [eax],al
 42ef  00 00                             add     [eax],al
 42f1  00 00                             add     [eax],al
 42f3  00 00                             add     [eax],al
 42f5  00 00                             add     [eax],al
 42f7  00 00                             add     [eax],al
 42f9  00 00                             add     [eax],al
 42fb  00 00                             add     [eax],al
 42fd  00 00                             add     [eax],al
 42ff  00 00                             add     [eax],al
 4301  00 00                             add     [eax],al
 4303  00 00                             add     [eax],al
 4305  00 00                             add     [eax],al
 4307  00 00                             add     [eax],al
 4309  00 00                             add     [eax],al
 430b  00 00                             add     [eax],al
 430d  00 00                             add     [eax],al
 430f  00 00                             add     [eax],al
 4311  00 00                             add     [eax],al
 4313  00 00                             add     [eax],al
 4315  00 00                             add     [eax],al
 4317  00 00                             add     [eax],al
 4319  00 00                             add     [eax],al
 431b  00 00                             add     [eax],al
 431d  00 00                             add     [eax],al
 431f  00 00                             add     [eax],al
 4321  00 00                             add     [eax],al
 4323  00 00                             add     [eax],al
 4325  00 00                             add     [eax],al
 4327  00 00                             add     [eax],al
 4329  00 00                             add     [eax],al
 432b  00 00                             add     [eax],al
 432d  00 00                             add     [eax],al
 432f  00 00                             add     [eax],al
 4331  00 00                             add     [eax],al
 4333  00 00                             add     [eax],al
 4335  00 00                             add     [eax],al
 4337  00 00                             add     [eax],al
 4339  00 00                             add     [eax],al
 433b  00 00                             add     [eax],al
 433d  00 00                             add     [eax],al
 433f  00 00                             add     [eax],al
 4341  00 00                             add     [eax],al
 4343  00 00                             add     [eax],al
 4345  00 00                             add     [eax],al
 4347  00 00                             add     [eax],al
 4349  00 00                             add     [eax],al
 434b  00 00                             add     [eax],al
 434d  00 00                             add     [eax],al
 434f  00 00                             add     [eax],al
 4351  00 00                             add     [eax],al
 4353  00 00                             add     [eax],al
 4355  00 00                             add     [eax],al
 4357  00 00                             add     [eax],al
 4359  00 00                             add     [eax],al
 435b  00 00                             add     [eax],al
 435d  00 00                             add     [eax],al
 435f  00 00                             add     [eax],al
 4361  00 00                             add     [eax],al
 4363  00 00                             add     [eax],al
 4365  00 00                             add     [eax],al
 4367  00 00                             add     [eax],al
 4369  00 00                             add     [eax],al
 436b  00 00                             add     [eax],al
 436d  00 00                             add     [eax],al
 436f  00 00                             add     [eax],al
 4371  00 00                             add     [eax],al
 4373  00 00                             add     [eax],al
 4375  00 00                             add     [eax],al
 4377  00 00                             add     [eax],al
 4379  00 00                             add     [eax],al
 437b  00 00                             add     [eax],al
 437d  00 00                             add     [eax],al
 437f  00 00                             add     [eax],al
 4381  00 00                             add     [eax],al
 4383  00 00                             add     [eax],al
 4385  00 00                             add     [eax],al
 4387  00 00                             add     [eax],al
 4389  00 00                             add     [eax],al
 438b  00 00                             add     [eax],al
 438d  00 00                             add     [eax],al
 438f  00 00                             add     [eax],al
 4391  00 00                             add     [eax],al
 4393  00 00                             add     [eax],al
 4395  00 00                             add     [eax],al
 4397  00 00                             add     [eax],al
 4399  00 00                             add     [eax],al
 439b  00 00                             add     [eax],al
 439d  00 00                             add     [eax],al
 439f  00 00                             add     [eax],al
 43a1  00 00                             add     [eax],al
 43a3  00 00                             add     [eax],al
 43a5  00 00                             add     [eax],al
 43a7  00 00                             add     [eax],al
 43a9  00 00                             add     [eax],al
 43ab  00 00                             add     [eax],al
 43ad  00 00                             add     [eax],al
 43af  00 00                             add     [eax],al
 43b1  00 00                             add     [eax],al
 43b3  00 00                             add     [eax],al
 43b5  00 00                             add     [eax],al
 43b7  00 00                             add     [eax],al
 43b9  00 00                             add     [eax],al
 43bb  00 00                             add     [eax],al
 43bd  00 00                             add     [eax],al
 43bf  00 00                             add     [eax],al
 43c1  00 00                             add     [eax],al
 43c3  00 00                             add     [eax],al
 43c5  00 00                             add     [eax],al
 43c7  00 00                             add     [eax],al
 43c9  00 00                             add     [eax],al
 43cb  00 00                             add     [eax],al
 43cd  00 00                             add     [eax],al
 43cf  00 00                             add     [eax],al
 43d1  00 00                             add     [eax],al
 43d3  00 00                             add     [eax],al
 43d5  00 00                             add     [eax],al
 43d7  00 00                             add     [eax],al
 43d9  00 00                             add     [eax],al
 43db  00 00                             add     [eax],al
 43dd  00 00                             add     [eax],al
 43df  00 00                             add     [eax],al
 43e1  00 00                             add     [eax],al
 43e3  00 00                             add     [eax],al
 43e5  00 00                             add     [eax],al
 43e7  00 00                             add     [eax],al
 43e9  00 00                             add     [eax],al
 43eb  00 00                             add     [eax],al
 43ed  00 00                             add     [eax],al
 43ef  00 00                             add     [eax],al
 43f1  00 00                             add     [eax],al
 43f3  00 00                             add     [eax],al
 43f5  00 00                             add     [eax],al
 43f7  00 00                             add     [eax],al
 43f9  00 00                             add     [eax],al
 43fb  00 00                             add     [eax],al
 43fd  00 00                             add     [eax],al
 43ff  00 00                             add     [eax],al
 4401  00 00                             add     [eax],al
 4403  00 00                             add     [eax],al
 4405  00 00                             add     [eax],al
 4407  00 00                             add     [eax],al
 4409  00 00                             add     [eax],al
 440b  00 00                             add     [eax],al
 440d  00 00                             add     [eax],al
 440f  00 00                             add     [eax],al
 4411  00 00                             add     [eax],al
 4413  00 00                             add     [eax],al
 4415  00 00                             add     [eax],al
 4417  00 00                             add     [eax],al
 4419  00 00                             add     [eax],al
 441b  00 00                             add     [eax],al
 441d  00 00                             add     [eax],al
 441f  00 00                             add     [eax],al
 4421  00 00                             add     [eax],al
 4423  00 00                             add     [eax],al
 4425  00 00                             add     [eax],al
 4427  00 00                             add     [eax],al
 4429  00 00                             add     [eax],al
 442b  00 00                             add     [eax],al
 442d  00 00                             add     [eax],al
 442f  00 00                             add     [eax],al
 4431  00 00                             add     [eax],al
 4433  00 00                             add     [eax],al
 4435  00 00                             add     [eax],al
 4437  00 00                             add     [eax],al
 4439  00 00                             add     [eax],al
 443b  00 00                             add     [eax],al
 443d  00 00                             add     [eax],al
 443f  00 00                             add     [eax],al
 4441  00 00                             add     [eax],al
 4443  00 00                             add     [eax],al
 4445  00 00                             add     [eax],al
 4447  00 00                             add     [eax],al
 4449  00 00                             add     [eax],al
 444b  00 00                             add     [eax],al
 444d  00 00                             add     [eax],al
 444f  00 00                             add     [eax],al
 4451  00 00                             add     [eax],al
 4453  00 00                             add     [eax],al
 4455  00 00                             add     [eax],al
 4457  00 00                             add     [eax],al
 4459  00 00                             add     [eax],al
 445b  00 00                             add     [eax],al
 445d  00 00                             add     [eax],al
 445f  00 00                             add     [eax],al
 4461  00 00                             add     [eax],al
 4463  00 00                             add     [eax],al
 4465  00 00                             add     [eax],al
 4467  00 00                             add     [eax],al
 4469  00 00                             add     [eax],al
 446b  00 00                             add     [eax],al
 446d  00 00                             add     [eax],al
 446f  00 00                             add     [eax],al
 4471  00 00                             add     [eax],al
 4473  00 00                             add     [eax],al
 4475  00 00                             add     [eax],al
 4477  00 00                             add     [eax],al
 4479  00 00                             add     [eax],al
 447b  00 00                             add     [eax],al
 447d  00 00                             add     [eax],al
 447f  00 00                             add     [eax],al
 4481  00 00                             add     [eax],al
 4483  00 00                             add     [eax],al
 4485  00 00                             add     [eax],al
 4487  00 00                             add     [eax],al
 4489  00 00                             add     [eax],al
 448b  00 00                             add     [eax],al
 448d  00 00                             add     [eax],al
 448f  00 00                             add     [eax],al
 4491  00 00                             add     [eax],al
 4493  00 00                             add     [eax],al
 4495  00 00                             add     [eax],al
 4497  00 00                             add     [eax],al
 4499  00 00                             add     [eax],al
 449b  00 00                             add     [eax],al
 449d  00 00                             add     [eax],al
 449f  00 00                             add     [eax],al
 44a1  00 00                             add     [eax],al
 44a3  00 00                             add     [eax],al
 44a5  00 00                             add     [eax],al
 44a7  00 00                             add     [eax],al
 44a9  00 00                             add     [eax],al
 44ab  00 00                             add     [eax],al
 44ad  00 00                             add     [eax],al
 44af  00 00                             add     [eax],al
 44b1  00 00                             add     [eax],al
 44b3  00 00                             add     [eax],al
 44b5  00 00                             add     [eax],al
 44b7  00 00                             add     [eax],al
 44b9  00 00                             add     [eax],al
 44bb  00 00                             add     [eax],al
 44bd  00 00                             add     [eax],al
 44bf  00 00                             add     [eax],al
 44c1  00 00                             add     [eax],al
 44c3  00 00                             add     [eax],al
 44c5  00 00                             add     [eax],al
 44c7  00 00                             add     [eax],al
 44c9  00 00                             add     [eax],al
 44cb  00 00                             add     [eax],al
 44cd  00 00                             add     [eax],al
 44cf  00 00                             add     [eax],al
 44d1  00 00                             add     [eax],al
 44d3  00 00                             add     [eax],al
 44d5  00 00                             add     [eax],al
 44d7  00 00                             add     [eax],al
 44d9  00 00                             add     [eax],al
 44db  00 00                             add     [eax],al
 44dd  00 00                             add     [eax],al
 44df  00 00                             add     [eax],al
 44e1  00 00                             add     [eax],al
 44e3  00 00                             add     [eax],al
 44e5  00 00                             add     [eax],al
 44e7  00 00                             add     [eax],al
 44e9  00 00                             add     [eax],al
 44eb  00 00                             add     [eax],al
 44ed  00 00                             add     [eax],al
 44ef  00 00                             add     [eax],al
 44f1  00 00                             add     [eax],al
 44f3  00 00                             add     [eax],al
 44f5  00 00                             add     [eax],al
 44f7  00 00                             add     [eax],al
 44f9  00 00                             add     [eax],al
 44fb  00 00                             add     [eax],al
 44fd  00 00                             add     [eax],al
 44ff  00 00                             add     [eax],al
 4501  00 00                             add     [eax],al
 4503  00 00                             add     [eax],al
 4505  00 00                             add     [eax],al
 4507  00 00                             add     [eax],al
 4509  00 00                             add     [eax],al
 450b  00 00                             add     [eax],al
 450d  00 00                             add     [eax],al
 450f  00 00                             add     [eax],al
 4511  00 00                             add     [eax],al
 4513  00 00                             add     [eax],al
 4515  00 00                             add     [eax],al
 4517  00 00                             add     [eax],al
 4519  00 00                             add     [eax],al
 451b  00 00                             add     [eax],al
 451d  00 00                             add     [eax],al
 451f  00 00                             add     [eax],al
 4521  00 00                             add     [eax],al
 4523  00 00                             add     [eax],al
 4525  00 00                             add     [eax],al
 4527  00 00                             add     [eax],al
 4529  00 00                             add     [eax],al
 452b  00 00                             add     [eax],al
 452d  00 00                             add     [eax],al
 452f  00 00                             add     [eax],al
 4531  00 00                             add     [eax],al
 4533  00 00                             add     [eax],al
 4535  00 00                             add     [eax],al
 4537  00 00                             add     [eax],al
 4539  00 00                             add     [eax],al
 453b  00 00                             add     [eax],al
 453d  00 00                             add     [eax],al
 453f  00 00                             add     [eax],al
 4541  00 00                             add     [eax],al
 4543  00 00                             add     [eax],al
 4545  00 00                             add     [eax],al
 4547  00 00                             add     [eax],al
 4549  00 00                             add     [eax],al
 454b  00 00                             add     [eax],al
 454d  00 00                             add     [eax],al
 454f  00 00                             add     [eax],al
 4551  00 00                             add     [eax],al
 4553  00 00                             add     [eax],al
 4555  00 00                             add     [eax],al
 4557  00 00                             add     [eax],al
 4559  00 00                             add     [eax],al
 455b  00 00                             add     [eax],al
 455d  00 00                             add     [eax],al
 455f  00 00                             add     [eax],al
 4561  00 00                             add     [eax],al
 4563  00 00                             add     [eax],al
 4565  00 00                             add     [eax],al
 4567  00 00                             add     [eax],al
 4569  00 00                             add     [eax],al
 456b  00 00                             add     [eax],al
 456d  00 00                             add     [eax],al
 456f  00 00                             add     [eax],al
 4571  00 00                             add     [eax],al
 4573  00 00                             add     [eax],al
 4575  00 00                             add     [eax],al
 4577  00 00                             add     [eax],al
 4579  00 00                             add     [eax],al
 457b  00 00                             add     [eax],al
 457d  00 00                             add     [eax],al
 457f  00 00                             add     [eax],al
 4581  00 00                             add     [eax],al
 4583  00 00                             add     [eax],al
 4585  00 00                             add     [eax],al
 4587  00 00                             add     [eax],al
 4589  00 00                             add     [eax],al
 458b  00 00                             add     [eax],al
 458d  00 00                             add     [eax],al
 458f  00 00                             add     [eax],al
 4591  00 00                             add     [eax],al
 4593  00 00                             add     [eax],al
 4595  00 00                             add     [eax],al
 4597  00 00                             add     [eax],al
 4599  00 00                             add     [eax],al
 459b  00 00                             add     [eax],al
 459d  00 00                             add     [eax],al
 459f  00 00                             add     [eax],al
 45a1  00 00                             add     [eax],al
 45a3  00 00                             add     [eax],al
 45a5  00 00                             add     [eax],al
 45a7  00 00                             add     [eax],al
 45a9  00 00                             add     [eax],al
 45ab  00 00                             add     [eax],al
 45ad  00 00                             add     [eax],al
 45af  00 00                             add     [eax],al
 45b1  00 00                             add     [eax],al
 45b3  00 00                             add     [eax],al
 45b5  00 00                             add     [eax],al
 45b7  00 00                             add     [eax],al
 45b9  00 00                             add     [eax],al
 45bb  00 00                             add     [eax],al
 45bd  00 00                             add     [eax],al
 45bf  00 00                             add     [eax],al
 45c1  00 00                             add     [eax],al
 45c3  00 00                             add     [eax],al
 45c5  00 00                             add     [eax],al
 45c7  00 00                             add     [eax],al
 45c9  00 00                             add     [eax],al
 45cb  00 00                             add     [eax],al
 45cd  00 00                             add     [eax],al
 45cf  00 00                             add     [eax],al
 45d1  00 00                             add     [eax],al
 45d3  00 00                             add     [eax],al
 45d5  00 00                             add     [eax],al
 45d7  00 00                             add     [eax],al
 45d9  00 00                             add     [eax],al
 45db  00 00                             add     [eax],al
 45dd  00 00                             add     [eax],al
 45df  00 00                             add     [eax],al
 45e1  00 00                             add     [eax],al
 45e3  00 00                             add     [eax],al
 45e5  00 00                             add     [eax],al
 45e7  00 00                             add     [eax],al
 45e9  00 00                             add     [eax],al
 45eb  00 00                             add     [eax],al
 45ed  00 00                             add     [eax],al
 45ef  00 00                             add     [eax],al
 45f1  00 00                             add     [eax],al
 45f3  00 00                             add     [eax],al
 45f5  00 00                             add     [eax],al
 45f7  00 00                             add     [eax],al
 45f9  00 00                             add     [eax],al
 45fb  00 00                             add     [eax],al
 45fd  00 00                             add     [eax],al
 45ff  00 00                             add     [eax],al
 4601  00 00                             add     [eax],al
 4603  00 00                             add     [eax],al
 4605  00 00                             add     [eax],al
 4607  00 00                             add     [eax],al
 4609  00 00                             add     [eax],al
 460b  00 00                             add     [eax],al
 460d  00 00                             add     [eax],al
 460f  00 00                             add     [eax],al
 4611  00 00                             add     [eax],al
 4613  00 00                             add     [eax],al
 4615  00 00                             add     [eax],al
 4617  00 00                             add     [eax],al
 4619  00 00                             add     [eax],al
 461b  00 00                             add     [eax],al
 461d  00 00                             add     [eax],al
 461f  00 00                             add     [eax],al
 4621  00 00                             add     [eax],al
 4623  00 00                             add     [eax],al
 4625  00 00                             add     [eax],al
 4627  00 00                             add     [eax],al
 4629  00 00                             add     [eax],al
 462b  00 00                             add     [eax],al
 462d  00 00                             add     [eax],al
 462f  00 00                             add     [eax],al
 4631  00 00                             add     [eax],al
 4633  00 00                             add     [eax],al
 4635  00 00                             add     [eax],al
 4637  00 00                             add     [eax],al
 4639  00 00                             add     [eax],al
 463b  00 00                             add     [eax],al
 463d  00 00                             add     [eax],al
 463f  00 00                             add     [eax],al
 4641  00 00                             add     [eax],al
 4643  00 00                             add     [eax],al
 4645  00 00                             add     [eax],al
 4647  00 00                             add     [eax],al
 4649  00 00                             add     [eax],al
 464b  00 00                             add     [eax],al
 464d  00 00                             add     [eax],al
 464f  00 00                             add     [eax],al
 4651  00 00                             add     [eax],al
 4653  00 00                             add     [eax],al
 4655  00 00                             add     [eax],al
 4657  00 00                             add     [eax],al
 4659  00 00                             add     [eax],al
 465b  00 00                             add     [eax],al
 465d  00 00                             add     [eax],al
 465f  00 00                             add     [eax],al
 4661  00 00                             add     [eax],al
 4663  00 00                             add     [eax],al
 4665  00 00                             add     [eax],al
 4667  00 00                             add     [eax],al
 4669  00 00                             add     [eax],al
 466b  00 00                             add     [eax],al
 466d  00 00                             add     [eax],al
 466f  00 00                             add     [eax],al
 4671  00 00                             add     [eax],al
 4673  00 00                             add     [eax],al
 4675  00 00                             add     [eax],al
 4677  00 00                             add     [eax],al
 4679  00 00                             add     [eax],al
 467b  00 00                             add     [eax],al
 467d  00 00                             add     [eax],al
 467f  00 00                             add     [eax],al
 4681  00 00                             add     [eax],al
 4683  00 00                             add     [eax],al
 4685  00 00                             add     [eax],al
 4687  00 00                             add     [eax],al
 4689  00 00                             add     [eax],al
 468b  00 00                             add     [eax],al
 468d  00 00                             add     [eax],al
 468f  00 00                             add     [eax],al
 4691  00 00                             add     [eax],al
 4693  00 00                             add     [eax],al
 4695  00 00                             add     [eax],al
 4697  00 00                             add     [eax],al
 4699  00 00                             add     [eax],al
 469b  00 00                             add     [eax],al
 469d  00 00                             add     [eax],al
 469f  00 00                             add     [eax],al
 46a1  00 00                             add     [eax],al
 46a3  00 00                             add     [eax],al
 46a5  00 00                             add     [eax],al
 46a7  00 00                             add     [eax],al
 46a9  00 00                             add     [eax],al
 46ab  00 00                             add     [eax],al
 46ad  00 00                             add     [eax],al
 46af  00 00                             add     [eax],al
 46b1  00 00                             add     [eax],al
 46b3  00 00                             add     [eax],al
 46b5  00 00                             add     [eax],al
 46b7  00 00                             add     [eax],al
 46b9  00 00                             add     [eax],al
 46bb  00 00                             add     [eax],al
 46bd  00 00                             add     [eax],al
 46bf  00 00                             add     [eax],al
 46c1  00 00                             add     [eax],al
 46c3  00 00                             add     [eax],al
 46c5  00 00                             add     [eax],al
 46c7  00 00                             add     [eax],al
 46c9  00 00                             add     [eax],al
 46cb  00 00                             add     [eax],al
 46cd  00 00                             add     [eax],al
 46cf  00 00                             add     [eax],al
 46d1  00 00                             add     [eax],al
 46d3  00 00                             add     [eax],al
 46d5  00 00                             add     [eax],al
 46d7  00 00                             add     [eax],al
 46d9  00 00                             add     [eax],al
 46db  00 00                             add     [eax],al
 46dd  00 00                             add     [eax],al
 46df  00 00                             add     [eax],al
 46e1  00 00                             add     [eax],al
 46e3  00 00                             add     [eax],al
 46e5  00 00                             add     [eax],al
 46e7  00 00                             add     [eax],al
 46e9  00 00                             add     [eax],al
 46eb  00 00                             add     [eax],al
 46ed  00 00                             add     [eax],al
 46ef  00 00                             add     [eax],al
 46f1  00 00                             add     [eax],al
 46f3  00 00                             add     [eax],al
 46f5  00 00                             add     [eax],al
 46f7  00 00                             add     [eax],al
 46f9  00 00                             add     [eax],al
 46fb  00 00                             add     [eax],al
 46fd  00 00                             add     [eax],al
 46ff  00 00                             add     [eax],al
 4701  00 00                             add     [eax],al
 4703  00 00                             add     [eax],al
 4705  00 00                             add     [eax],al
 4707  00 00                             add     [eax],al
 4709  00 00                             add     [eax],al
 470b  00 00                             add     [eax],al
 470d  00 00                             add     [eax],al
 470f  00 00                             add     [eax],al
 4711  00 00                             add     [eax],al
 4713  00 00                             add     [eax],al
 4715  00 00                             add     [eax],al
 4717  00 00                             add     [eax],al
 4719  00 00                             add     [eax],al
 471b  00 00                             add     [eax],al
 471d  00 00                             add     [eax],al
 471f  00 00                             add     [eax],al
 4721  00 00                             add     [eax],al
 4723  00 00                             add     [eax],al
 4725  00 00                             add     [eax],al
 4727  00 00                             add     [eax],al
 4729  00 00                             add     [eax],al
 472b  00 00                             add     [eax],al
 472d  00 00                             add     [eax],al
 472f  00 00                             add     [eax],al
 4731  00 00                             add     [eax],al
 4733  00 00                             add     [eax],al
 4735  00 00                             add     [eax],al
 4737  00 00                             add     [eax],al
 4739  00 00                             add     [eax],al
 473b  00 00                             add     [eax],al
 473d  00 00                             add     [eax],al
 473f  00 00                             add     [eax],al
 4741  00 00                             add     [eax],al
 4743  00 00                             add     [eax],al
 4745  00 00                             add     [eax],al
 4747  00 00                             add     [eax],al
 4749  00 00                             add     [eax],al
 474b  00 00                             add     [eax],al
 474d  00 00                             add     [eax],al
 474f  00 00                             add     [eax],al
 4751  00 00                             add     [eax],al
 4753  00 00                             add     [eax],al
 4755  00 00                             add     [eax],al
 4757  00 00                             add     [eax],al
 4759  00 00                             add     [eax],al
 475b  00 00                             add     [eax],al
 475d  00 00                             add     [eax],al
 475f  00 00                             add     [eax],al
 4761  00 00                             add     [eax],al
 4763  00 00                             add     [eax],al
 4765  00 00                             add     [eax],al
 4767  00 00                             add     [eax],al
 4769  00 00                             add     [eax],al
 476b  00 00                             add     [eax],al
 476d  00 00                             add     [eax],al
 476f  00 00                             add     [eax],al
 4771  00 00                             add     [eax],al
 4773  00 00                             add     [eax],al
 4775  00 00                             add     [eax],al
 4777  00 00                             add     [eax],al
 4779  00 00                             add     [eax],al
 477b  00 00                             add     [eax],al
 477d  00 00                             add     [eax],al
 477f  00 00                             add     [eax],al
 4781  00 00                             add     [eax],al
 4783  00 00                             add     [eax],al
 4785  00 00                             add     [eax],al
 4787  00 00                             add     [eax],al
 4789  00 00                             add     [eax],al
 478b  00 00                             add     [eax],al
 478d  00 00                             add     [eax],al
 478f  00 00                             add     [eax],al
 4791  00 00                             add     [eax],al
 4793  00 00                             add     [eax],al
 4795  00 00                             add     [eax],al
 4797  00 00                             add     [eax],al
 4799  00 00                             add     [eax],al
 479b  00 00                             add     [eax],al
 479d  00 00                             add     [eax],al
 479f  00 00                             add     [eax],al
 47a1  00 00                             add     [eax],al
 47a3  00 00                             add     [eax],al
 47a5  00 00                             add     [eax],al
 47a7  00 00                             add     [eax],al
 47a9  00 00                             add     [eax],al
 47ab  00 00                             add     [eax],al
 47ad  00 00                             add     [eax],al
 47af  00 00                             add     [eax],al
 47b1  00 00                             add     [eax],al
 47b3  00 00                             add     [eax],al
 47b5  00 00                             add     [eax],al
 47b7  00 00                             add     [eax],al
 47b9  00 00                             add     [eax],al
 47bb  00 00                             add     [eax],al
 47bd  00 00                             add     [eax],al
 47bf  00 00                             add     [eax],al
 47c1  00 00                             add     [eax],al
 47c3  00 00                             add     [eax],al
 47c5  00 00                             add     [eax],al
 47c7  00 00                             add     [eax],al
 47c9  00 00                             add     [eax],al
 47cb  00 00                             add     [eax],al
 47cd  00 00                             add     [eax],al
 47cf  00 00                             add     [eax],al
 47d1  00 00                             add     [eax],al
 47d3  00 00                             add     [eax],al
 47d5  00 00                             add     [eax],al
 47d7  00 00                             add     [eax],al
 47d9  00 00                             add     [eax],al
 47db  00 00                             add     [eax],al
 47dd  00 00                             add     [eax],al
 47df  00 00                             add     [eax],al
 47e1  00 00                             add     [eax],al
 47e3  00 00                             add     [eax],al
 47e5  00 00                             add     [eax],al
 47e7  00 00                             add     [eax],al
 47e9  00 00                             add     [eax],al
 47eb  00 00                             add     [eax],al
 47ed  00 00                             add     [eax],al
 47ef  00 00                             add     [eax],al
 47f1  00 00                             add     [eax],al
 47f3  00 00                             add     [eax],al
 47f5  00 00                             add     [eax],al
 47f7  00 00                             add     [eax],al
 47f9  00 00                             add     [eax],al
 47fb  00 00                             add     [eax],al
 47fd  00 00                             add     [eax],al
 47ff  00 00                             add     [eax],al
 4801  00 00                             add     [eax],al
 4803  00 00                             add     [eax],al
 4805  00 00                             add     [eax],al
 4807  00 00                             add     [eax],al
 4809  00 00                             add     [eax],al
 480b  00 00                             add     [eax],al
 480d  00 00                             add     [eax],al
 480f  00 00                             add     [eax],al
 4811  00 00                             add     [eax],al
 4813  00 00                             add     [eax],al
 4815  00 00                             add     [eax],al
 4817  00 00                             add     [eax],al
 4819  00 00                             add     [eax],al
 481b  00 00                             add     [eax],al
 481d  00 00                             add     [eax],al
 481f  00 00                             add     [eax],al
 4821  00 00                             add     [eax],al
 4823  00 00                             add     [eax],al
 4825  00 00                             add     [eax],al
 4827  00 00                             add     [eax],al
 4829  00 00                             add     [eax],al
 482b  00 00                             add     [eax],al
 482d  00 00                             add     [eax],al
 482f  00 00                             add     [eax],al
 4831  00 00                             add     [eax],al
 4833  00 00                             add     [eax],al
 4835  00 00                             add     [eax],al
 4837  00 00                             add     [eax],al
 4839  00 00                             add     [eax],al
 483b  00 00                             add     [eax],al
 483d  00 00                             add     [eax],al
 483f  00 00                             add     [eax],al
 4841  00 00                             add     [eax],al
 4843  00 00                             add     [eax],al
 4845  00 00                             add     [eax],al
 4847  00 00                             add     [eax],al
 4849  00 00                             add     [eax],al
 484b  00 00                             add     [eax],al
 484d  00 00                             add     [eax],al
 484f  00 00                             add     [eax],al
 4851  00 00                             add     [eax],al
 4853  00 00                             add     [eax],al
 4855  00 00                             add     [eax],al
 4857  00 00                             add     [eax],al
 4859  00 00                             add     [eax],al
 485b  00 00                             add     [eax],al
 485d  00 00                             add     [eax],al
 485f  00 00                             add     [eax],al
 4861  00 00                             add     [eax],al
 4863  00 00                             add     [eax],al
 4865  00 00                             add     [eax],al
 4867  00 00                             add     [eax],al
 4869  00 00                             add     [eax],al
 486b  00 00                             add     [eax],al
 486d  00 00                             add     [eax],al
 486f  00 00                             add     [eax],al
 4871  00 00                             add     [eax],al
 4873  00 00                             add     [eax],al
 4875  00 00                             add     [eax],al
 4877  00 00                             add     [eax],al
 4879  00 00                             add     [eax],al
 487b  00 00                             add     [eax],al
 487d  00 00                             add     [eax],al
 487f  00 00                             add     [eax],al
 4881  00 00                             add     [eax],al
 4883  00 00                             add     [eax],al
 4885  00 00                             add     [eax],al
 4887  00 00                             add     [eax],al
 4889  00 00                             add     [eax],al
 488b  00 00                             add     [eax],al
 488d  00 00                             add     [eax],al
 488f  00 00                             add     [eax],al
 4891  00 00                             add     [eax],al
 4893  00 00                             add     [eax],al
 4895  00 00                             add     [eax],al
 4897  00 00                             add     [eax],al
 4899  00 00                             add     [eax],al
 489b  00 00                             add     [eax],al
 489d  00 00                             add     [eax],al
 489f  00 00                             add     [eax],al
 48a1  00 00                             add     [eax],al
 48a3  00 00                             add     [eax],al
 48a5  00 00                             add     [eax],al
 48a7  00 00                             add     [eax],al
 48a9  00 00                             add     [eax],al
 48ab  00 00                             add     [eax],al
 48ad  00 00                             add     [eax],al
 48af  00 00                             add     [eax],al
 48b1  00 00                             add     [eax],al
 48b3  00 00                             add     [eax],al
 48b5  00 00                             add     [eax],al
 48b7  00 00                             add     [eax],al
 48b9  00 00                             add     [eax],al
 48bb  00 00                             add     [eax],al
 48bd  00 00                             add     [eax],al
 48bf  00 00                             add     [eax],al
 48c1  00 00                             add     [eax],al
 48c3  00 00                             add     [eax],al
 48c5  00 00                             add     [eax],al
 48c7  00 00                             add     [eax],al
 48c9  00 00                             add     [eax],al
 48cb  00 00                             add     [eax],al
 48cd  00 00                             add     [eax],al
 48cf  00 00                             add     [eax],al
 48d1  00 00                             add     [eax],al
 48d3  00 00                             add     [eax],al
 48d5  00 00                             add     [eax],al
 48d7  00 00                             add     [eax],al
 48d9  00 00                             add     [eax],al
 48db  00 00                             add     [eax],al
 48dd  00 00                             add     [eax],al
 48df  00 00                             add     [eax],al
 48e1  00 00                             add     [eax],al
 48e3  00 00                             add     [eax],al
 48e5  00 00                             add     [eax],al
 48e7  00 00                             add     [eax],al
 48e9  00 00                             add     [eax],al
 48eb  00 00                             add     [eax],al
 48ed  00 00                             add     [eax],al
 48ef  00 00                             add     [eax],al
 48f1  00 00                             add     [eax],al
 48f3  00 00                             add     [eax],al
 48f5  00 00                             add     [eax],al
 48f7  00 00                             add     [eax],al
 48f9  00 00                             add     [eax],al
 48fb  00 00                             add     [eax],al
 48fd  00 00                             add     [eax],al
 48ff  00 00                             add     [eax],al
 4901  00 00                             add     [eax],al
 4903  00 00                             add     [eax],al
 4905  00 00                             add     [eax],al
 4907  00 00                             add     [eax],al
 4909  00 00                             add     [eax],al
 490b  00 00                             add     [eax],al
 490d  00 00                             add     [eax],al
 490f  00 00                             add     [eax],al
 4911  00 00                             add     [eax],al
 4913  00 00                             add     [eax],al
 4915  00 00                             add     [eax],al
 4917  00 00                             add     [eax],al
 4919  00 00                             add     [eax],al
 491b  00 00                             add     [eax],al
 491d  00 00                             add     [eax],al
 491f  00 00                             add     [eax],al
 4921  00 00                             add     [eax],al
 4923  00 00                             add     [eax],al
 4925  00 00                             add     [eax],al
 4927  00 00                             add     [eax],al
 4929  00 00                             add     [eax],al
 492b  00 00                             add     [eax],al
 492d  00 00                             add     [eax],al
 492f  00 00                             add     [eax],al
 4931  00 00                             add     [eax],al
 4933  00 00                             add     [eax],al
 4935  00 00                             add     [eax],al
 4937  00 00                             add     [eax],al
 4939  00 00                             add     [eax],al
 493b  00 00                             add     [eax],al
 493d  00 00                             add     [eax],al
 493f  00 00                             add     [eax],al
 4941  00 00                             add     [eax],al
 4943  00 00                             add     [eax],al
 4945  00 00                             add     [eax],al
 4947  00 00                             add     [eax],al
 4949  00 00                             add     [eax],al
 494b  00 00                             add     [eax],al
 494d  00 00                             add     [eax],al
 494f  00 00                             add     [eax],al
 4951  00 00                             add     [eax],al
 4953  00 00                             add     [eax],al
 4955  00 00                             add     [eax],al
 4957  00 00                             add     [eax],al
 4959  00 00                             add     [eax],al
 495b  00 00                             add     [eax],al
 495d  00 00                             add     [eax],al
 495f  00 00                             add     [eax],al
 4961  00 00                             add     [eax],al
 4963  00 00                             add     [eax],al
 4965  00 00                             add     [eax],al
 4967  00 00                             add     [eax],al
 4969  00 00                             add     [eax],al
 496b  00 00                             add     [eax],al
 496d  00 00                             add     [eax],al
 496f  00 00                             add     [eax],al
 4971  00 00                             add     [eax],al
 4973  00 00                             add     [eax],al
 4975  00 00                             add     [eax],al
 4977  00 00                             add     [eax],al
 4979  00 00                             add     [eax],al
 497b  00 00                             add     [eax],al
 497d  00 00                             add     [eax],al
 497f  00 00                             add     [eax],al
 4981  00 00                             add     [eax],al
 4983  00 00                             add     [eax],al
 4985  00 00                             add     [eax],al
 4987  00 00                             add     [eax],al
 4989  00 00                             add     [eax],al
 498b  00 00                             add     [eax],al
 498d  00 00                             add     [eax],al
 498f  00 00                             add     [eax],al
 4991  00 00                             add     [eax],al
 4993  00 00                             add     [eax],al
 4995  00 00                             add     [eax],al
 4997  00 00                             add     [eax],al
 4999  00 00                             add     [eax],al
 499b  00 00                             add     [eax],al
 499d  00 00                             add     [eax],al
 499f  00 00                             add     [eax],al
 49a1  00 00                             add     [eax],al
 49a3  00 00                             add     [eax],al
 49a5  00 00                             add     [eax],al
 49a7  00 00                             add     [eax],al
 49a9  00 00                             add     [eax],al
 49ab  00 00                             add     [eax],al
 49ad  00 00                             add     [eax],al
 49af  00 00                             add     [eax],al
 49b1  00 00                             add     [eax],al
 49b3  00 00                             add     [eax],al
 49b5  00 00                             add     [eax],al
 49b7  00 00                             add     [eax],al
 49b9  00 00                             add     [eax],al
 49bb  00 00                             add     [eax],al
 49bd  00 00                             add     [eax],al
 49bf  00 00                             add     [eax],al
 49c1  00 00                             add     [eax],al
 49c3  00 00                             add     [eax],al
 49c5  00 00                             add     [eax],al
 49c7  00 00                             add     [eax],al
 49c9  00 00                             add     [eax],al
 49cb  00 00                             add     [eax],al
 49cd  00 00                             add     [eax],al
 49cf  00 00                             add     [eax],al
 49d1  00 00                             add     [eax],al
 49d3  00 00                             add     [eax],al
 49d5  00 00                             add     [eax],al
 49d7  00 00                             add     [eax],al
 49d9  00 00                             add     [eax],al
 49db  00 00                             add     [eax],al
 49dd  00 00                             add     [eax],al
 49df  00 00                             add     [eax],al
 49e1  00 00                             add     [eax],al
 49e3  00 00                             add     [eax],al
 49e5  00 00                             add     [eax],al
 49e7  00 00                             add     [eax],al
 49e9  00 00                             add     [eax],al
 49eb  00 00                             add     [eax],al
 49ed  00 00                             add     [eax],al
 49ef  00 00                             add     [eax],al
 49f1  00 00                             add     [eax],al
 49f3  00 00                             add     [eax],al
 49f5  00 00                             add     [eax],al
 49f7  00 00                             add     [eax],al
 49f9  00 00                             add     [eax],al
 49fb  00 00                             add     [eax],al
 49fd  00 00                             add     [eax],al
 49ff  00 00                             add     [eax],al
 4a01  00 00                             add     [eax],al
 4a03  00 00                             add     [eax],al
 4a05  00 00                             add     [eax],al
 4a07  00 00                             add     [eax],al
 4a09  00 00                             add     [eax],al
 4a0b  00 00                             add     [eax],al
 4a0d  00 00                             add     [eax],al
 4a0f  00 00                             add     [eax],al
 4a11  00 00                             add     [eax],al
 4a13  00 00                             add     [eax],al
 4a15  00 00                             add     [eax],al
 4a17  00 00                             add     [eax],al
 4a19  00 00                             add     [eax],al
 4a1b  00 00                             add     [eax],al
 4a1d  00 00                             add     [eax],al
 4a1f  00 00                             add     [eax],al
 4a21  00 00                             add     [eax],al
 4a23  00 00                             add     [eax],al
 4a25  00 00                             add     [eax],al
 4a27  00 00                             add     [eax],al
 4a29  00 00                             add     [eax],al
 4a2b  00 00                             add     [eax],al
 4a2d  00 00                             add     [eax],al
 4a2f  00 00                             add     [eax],al
 4a31  00 00                             add     [eax],al
 4a33  00 00                             add     [eax],al
 4a35  00 00                             add     [eax],al
 4a37  00 00                             add     [eax],al
 4a39  00 00                             add     [eax],al
 4a3b  00 00                             add     [eax],al
 4a3d  00 00                             add     [eax],al
 4a3f  00 00                             add     [eax],al
 4a41  00 00                             add     [eax],al
 4a43  00 00                             add     [eax],al
 4a45  00 00                             add     [eax],al
 4a47  00 00                             add     [eax],al
 4a49  00 00                             add     [eax],al
 4a4b  00 00                             add     [eax],al
 4a4d  00 00                             add     [eax],al
 4a4f  00 00                             add     [eax],al
 4a51  00 00                             add     [eax],al
 4a53  00 00                             add     [eax],al
 4a55  00 00                             add     [eax],al
 4a57  00 00                             add     [eax],al
 4a59  00 00                             add     [eax],al
 4a5b  00 00                             add     [eax],al
 4a5d  00 00                             add     [eax],al
 4a5f  00 00                             add     [eax],al
 4a61  00 00                             add     [eax],al
 4a63  00 00                             add     [eax],al
 4a65  00 00                             add     [eax],al
 4a67  00 00                             add     [eax],al
 4a69  00 00                             add     [eax],al
 4a6b  00 00                             add     [eax],al
 4a6d  00 00                             add     [eax],al
 4a6f  00 00                             add     [eax],al
 4a71  00 00                             add     [eax],al
 4a73  00 00                             add     [eax],al
 4a75  00 00                             add     [eax],al
 4a77  00 00                             add     [eax],al
 4a79  00 00                             add     [eax],al
 4a7b  00 00                             add     [eax],al
 4a7d  00 00                             add     [eax],al
 4a7f  00 00                             add     [eax],al
 4a81  00 00                             add     [eax],al
 4a83  00 00                             add     [eax],al
 4a85  00 00                             add     [eax],al
 4a87  00 00                             add     [eax],al
 4a89  00 00                             add     [eax],al
 4a8b  00 00                             add     [eax],al
 4a8d  00 00                             add     [eax],al
 4a8f  00 00                             add     [eax],al
 4a91  00 00                             add     [eax],al
 4a93  00 00                             add     [eax],al
 4a95  00 00                             add     [eax],al
 4a97  00 00                             add     [eax],al
 4a99  00 00                             add     [eax],al
 4a9b  00 00                             add     [eax],al
 4a9d  00 00                             add     [eax],al
 4a9f  00 00                             add     [eax],al
 4aa1  00 00                             add     [eax],al
 4aa3  00 00                             add     [eax],al
 4aa5  00 00                             add     [eax],al
 4aa7  00 00                             add     [eax],al
 4aa9  00 00                             add     [eax],al
 4aab  00 00                             add     [eax],al
 4aad  00 00                             add     [eax],al
 4aaf  00 00                             add     [eax],al
 4ab1  00 00                             add     [eax],al
 4ab3  00 00                             add     [eax],al
 4ab5  00 00                             add     [eax],al
 4ab7  00 00                             add     [eax],al
 4ab9  00 00                             add     [eax],al
 4abb  00 00                             add     [eax],al
 4abd  00 00                             add     [eax],al
 4abf  00 00                             add     [eax],al
 4ac1  00 00                             add     [eax],al
 4ac3  00 00                             add     [eax],al
 4ac5  00 00                             add     [eax],al
 4ac7  00 00                             add     [eax],al
 4ac9  00 00                             add     [eax],al
 4acb  00 00                             add     [eax],al
 4acd  00 00                             add     [eax],al
 4acf  00 00                             add     [eax],al
 4ad1  00 00                             add     [eax],al
 4ad3  00 00                             add     [eax],al
 4ad5  00 00                             add     [eax],al
 4ad7  00 00                             add     [eax],al
 4ad9  00 00                             add     [eax],al
 4adb  00 00                             add     [eax],al
 4add  00 00                             add     [eax],al
 4adf  00 00                             add     [eax],al
 4ae1  00 00                             add     [eax],al
 4ae3  00 00                             add     [eax],al
 4ae5  00 00                             add     [eax],al
 4ae7  00 00                             add     [eax],al
 4ae9  00 00                             add     [eax],al
 4aeb  00 00                             add     [eax],al
 4aed  00 00                             add     [eax],al
 4aef  00 00                             add     [eax],al
 4af1  00 00                             add     [eax],al
 4af3  00 00                             add     [eax],al
 4af5  00 00                             add     [eax],al
 4af7  00 00                             add     [eax],al
 4af9  00 00                             add     [eax],al
 4afb  00 00                             add     [eax],al
 4afd  00 00                             add     [eax],al
 4aff  00 00                             add     [eax],al
 4b01  00 00                             add     [eax],al
 4b03  00 00                             add     [eax],al
 4b05  00 00                             add     [eax],al
 4b07  00 00                             add     [eax],al
 4b09  00 00                             add     [eax],al
 4b0b  00 00                             add     [eax],al
 4b0d  00 00                             add     [eax],al
 4b0f  00 00                             add     [eax],al
 4b11  00 00                             add     [eax],al
 4b13  00 00                             add     [eax],al
 4b15  00 00                             add     [eax],al
 4b17  00 00                             add     [eax],al
 4b19  00 00                             add     [eax],al
 4b1b  00 00                             add     [eax],al
 4b1d  00 00                             add     [eax],al
 4b1f  00 00                             add     [eax],al
 4b21  00 00                             add     [eax],al
 4b23  00 00                             add     [eax],al
 4b25  00 00                             add     [eax],al
 4b27  00 00                             add     [eax],al
 4b29  00 00                             add     [eax],al
 4b2b  00 00                             add     [eax],al
 4b2d  00 00                             add     [eax],al
 4b2f  00 00                             add     [eax],al
 4b31  00 00                             add     [eax],al
 4b33  00 00                             add     [eax],al
 4b35  00 00                             add     [eax],al
 4b37  00 00                             add     [eax],al
 4b39  00 00                             add     [eax],al
 4b3b  00 00                             add     [eax],al
 4b3d  00 00                             add     [eax],al
 4b3f  00 00                             add     [eax],al
 4b41  00 00                             add     [eax],al
 4b43  00 00                             add     [eax],al
 4b45  00 00                             add     [eax],al
 4b47  00 00                             add     [eax],al
 4b49  00 00                             add     [eax],al
 4b4b  00 00                             add     [eax],al
 4b4d  00 00                             add     [eax],al
 4b4f  00 00                             add     [eax],al
 4b51  00 00                             add     [eax],al
 4b53  00 00                             add     [eax],al
 4b55  00 00                             add     [eax],al
 4b57  00 00                             add     [eax],al
 4b59  00 00                             add     [eax],al
 4b5b  00 00                             add     [eax],al
 4b5d  00 00                             add     [eax],al
 4b5f  00 00                             add     [eax],al
 4b61  00 00                             add     [eax],al
 4b63  00 00                             add     [eax],al
 4b65  00 00                             add     [eax],al
 4b67  00 00                             add     [eax],al
 4b69  00 00                             add     [eax],al
 4b6b  00 00                             add     [eax],al
 4b6d  00 00                             add     [eax],al
 4b6f  00 00                             add     [eax],al
 4b71  00 00                             add     [eax],al
 4b73  00 00                             add     [eax],al
 4b75  00 00                             add     [eax],al
 4b77  00 00                             add     [eax],al
 4b79  00 00                             add     [eax],al
 4b7b  00 00                             add     [eax],al
 4b7d  00 00                             add     [eax],al
 4b7f  00 00                             add     [eax],al
 4b81  00 00                             add     [eax],al
 4b83  00 00                             add     [eax],al
 4b85  00 00                             add     [eax],al
 4b87  00 00                             add     [eax],al
 4b89  00 00                             add     [eax],al
 4b8b  00 00                             add     [eax],al
 4b8d  00 00                             add     [eax],al
 4b8f  00 00                             add     [eax],al
 4b91  00 00                             add     [eax],al
 4b93  00 00                             add     [eax],al
 4b95  00 00                             add     [eax],al
 4b97  00 00                             add     [eax],al
 4b99  00 00                             add     [eax],al
 4b9b  00 00                             add     [eax],al
 4b9d  00 00                             add     [eax],al
 4b9f  00 00                             add     [eax],al
 4ba1  00 00                             add     [eax],al
 4ba3  00 00                             add     [eax],al
 4ba5  00 00                             add     [eax],al
 4ba7  00 00                             add     [eax],al
 4ba9  00 00                             add     [eax],al
 4bab  00 00                             add     [eax],al
 4bad  00 00                             add     [eax],al
 4baf  00 00                             add     [eax],al
 4bb1  00 00                             add     [eax],al
 4bb3  00 00                             add     [eax],al
 4bb5  00 00                             add     [eax],al
 4bb7  00 00                             add     [eax],al
 4bb9  00 00                             add     [eax],al
 4bbb  00 00                             add     [eax],al
 4bbd  00 00                             add     [eax],al
 4bbf  00 00                             add     [eax],al
 4bc1  00 00                             add     [eax],al
 4bc3  00 00                             add     [eax],al
 4bc5  00 00                             add     [eax],al
 4bc7  00 00                             add     [eax],al
 4bc9  00 00                             add     [eax],al
 4bcb  00 00                             add     [eax],al
 4bcd  00 00                             add     [eax],al
 4bcf  00 00                             add     [eax],al
 4bd1  00 00                             add     [eax],al
 4bd3  00 00                             add     [eax],al
 4bd5  00 00                             add     [eax],al
 4bd7  00 00                             add     [eax],al
 4bd9  00 00                             add     [eax],al
 4bdb  00 00                             add     [eax],al
 4bdd  00 00                             add     [eax],al
 4bdf  00 00                             add     [eax],al
 4be1  00 00                             add     [eax],al
 4be3  00 00                             add     [eax],al
 4be5  00 00                             add     [eax],al
 4be7  00 00                             add     [eax],al
 4be9  00 00                             add     [eax],al
 4beb  00 00                             add     [eax],al
 4bed  00 00                             add     [eax],al
 4bef  00 00                             add     [eax],al
 4bf1  00 00                             add     [eax],al
 4bf3  00 00                             add     [eax],al
 4bf5  00 00                             add     [eax],al
 4bf7  00 00                             add     [eax],al
 4bf9  00 00                             add     [eax],al
 4bfb  00 00                             add     [eax],al
 4bfd  00 00                             add     [eax],al
 4bff  00 00                             add     [eax],al
 4c01  00 00                             add     [eax],al
 4c03  00 00                             add     [eax],al
 4c05  00 00                             add     [eax],al
 4c07  00 00                             add     [eax],al
 4c09  00 00                             add     [eax],al
 4c0b  00 00                             add     [eax],al
 4c0d  00 00                             add     [eax],al
 4c0f  00 00                             add     [eax],al
 4c11  00 00                             add     [eax],al
 4c13  00 00                             add     [eax],al
 4c15  00 00                             add     [eax],al
 4c17  00 00                             add     [eax],al
 4c19  00 00                             add     [eax],al
 4c1b  00 00                             add     [eax],al
 4c1d  00 00                             add     [eax],al
 4c1f  00 00                             add     [eax],al
 4c21  00 00                             add     [eax],al
 4c23  00 00                             add     [eax],al
 4c25  00 00                             add     [eax],al
 4c27  00 00                             add     [eax],al
 4c29  00 00                             add     [eax],al
 4c2b  00 00                             add     [eax],al
 4c2d  00 00                             add     [eax],al
 4c2f  00 00                             add     [eax],al
 4c31  00 00                             add     [eax],al
 4c33  00 00                             add     [eax],al
 4c35  00 00                             add     [eax],al
 4c37  00 00                             add     [eax],al
 4c39  00 00                             add     [eax],al
 4c3b  00 00                             add     [eax],al
 4c3d  00 00                             add     [eax],al
 4c3f  00 00                             add     [eax],al
 4c41  00 00                             add     [eax],al
 4c43  00 00                             add     [eax],al
 4c45  00 00                             add     [eax],al
 4c47  00 00                             add     [eax],al
 4c49  00 00                             add     [eax],al
 4c4b  00 00                             add     [eax],al
 4c4d  00 00                             add     [eax],al
 4c4f  00 00                             add     [eax],al
 4c51  00 00                             add     [eax],al
 4c53  00 00                             add     [eax],al
 4c55  00 00                             add     [eax],al
 4c57  00 00                             add     [eax],al
 4c59  00 00                             add     [eax],al
 4c5b  00 00                             add     [eax],al
 4c5d  00 00                             add     [eax],al
 4c5f  00 00                             add     [eax],al
 4c61  00 00                             add     [eax],al
 4c63  00 00                             add     [eax],al
 4c65  00 00                             add     [eax],al
 4c67  00 00                             add     [eax],al
 4c69  00 00                             add     [eax],al
 4c6b  00 00                             add     [eax],al
 4c6d  00 00                             add     [eax],al
 4c6f  00 00                             add     [eax],al
 4c71  00 00                             add     [eax],al
 4c73  00 00                             add     [eax],al
 4c75  00 00                             add     [eax],al
 4c77  00 00                             add     [eax],al
 4c79  00 00                             add     [eax],al
 4c7b  00 00                             add     [eax],al
 4c7d  00 00                             add     [eax],al
 4c7f  00 00                             add     [eax],al
 4c81  00 00                             add     [eax],al
 4c83  00 00                             add     [eax],al
 4c85  00 00                             add     [eax],al
 4c87  00 00                             add     [eax],al
 4c89  00 00                             add     [eax],al
 4c8b  00 00                             add     [eax],al
 4c8d  00 00                             add     [eax],al
 4c8f  00 00                             add     [eax],al
 4c91  00 00                             add     [eax],al
 4c93  00 00                             add     [eax],al
 4c95  00 00                             add     [eax],al
 4c97  00 00                             add     [eax],al
 4c99  00 00                             add     [eax],al
 4c9b  00 00                             add     [eax],al
 4c9d  00 00                             add     [eax],al
 4c9f  00 00                             add     [eax],al
 4ca1  00 00                             add     [eax],al
 4ca3  00 00                             add     [eax],al
 4ca5  00 00                             add     [eax],al
 4ca7  00 00                             add     [eax],al
 4ca9  00 00                             add     [eax],al
 4cab  00 00                             add     [eax],al
 4cad  00 00                             add     [eax],al
 4caf  00 00                             add     [eax],al
 4cb1  00 00                             add     [eax],al
 4cb3  00 00                             add     [eax],al
 4cb5  00 00                             add     [eax],al
 4cb7  00 00                             add     [eax],al
 4cb9  00 00                             add     [eax],al
 4cbb  00 00                             add     [eax],al
 4cbd  00 00                             add     [eax],al
 4cbf  00 00                             add     [eax],al
 4cc1  00 00                             add     [eax],al
 4cc3  00 00                             add     [eax],al
 4cc5  00 00                             add     [eax],al
 4cc7  00 00                             add     [eax],al
 4cc9  00 00                             add     [eax],al
 4ccb  00 00                             add     [eax],al
 4ccd  00 00                             add     [eax],al
 4ccf  00 00                             add     [eax],al
 4cd1  00 00                             add     [eax],al
 4cd3  00 00                             add     [eax],al
 4cd5  00 00                             add     [eax],al
 4cd7  00 00                             add     [eax],al
 4cd9  00 00                             add     [eax],al
 4cdb  00 00                             add     [eax],al
 4cdd  00 00                             add     [eax],al
 4cdf  00 00                             add     [eax],al
 4ce1  00 00                             add     [eax],al
 4ce3  00 00                             add     [eax],al
 4ce5  00 00                             add     [eax],al
 4ce7  00 00                             add     [eax],al
 4ce9  00 00                             add     [eax],al
 4ceb  00 00                             add     [eax],al
 4ced  00 00                             add     [eax],al
 4cef  00 00                             add     [eax],al
 4cf1  00 00                             add     [eax],al
 4cf3  00 00                             add     [eax],al
 4cf5  00 00                             add     [eax],al
 4cf7  00 00                             add     [eax],al
 4cf9  00 00                             add     [eax],al
 4cfb  00 00                             add     [eax],al
 4cfd  00 00                             add     [eax],al
 4cff  00 00                             add     [eax],al
 4d01  00 00                             add     [eax],al
 4d03  00 00                             add     [eax],al
 4d05  00 00                             add     [eax],al
 4d07  00 00                             add     [eax],al
 4d09  00 00                             add     [eax],al
 4d0b  00 00                             add     [eax],al
 4d0d  00 00                             add     [eax],al
 4d0f  00 00                             add     [eax],al
 4d11  00 00                             add     [eax],al
 4d13  00 00                             add     [eax],al
 4d15  00 00                             add     [eax],al
 4d17  00 00                             add     [eax],al
 4d19  00 00                             add     [eax],al
 4d1b  00 00                             add     [eax],al
 4d1d  00 00                             add     [eax],al
 4d1f  00 00                             add     [eax],al
 4d21  00 00                             add     [eax],al
 4d23  00 00                             add     [eax],al
 4d25  00 00                             add     [eax],al
 4d27  00 00                             add     [eax],al
 4d29  00 00                             add     [eax],al
 4d2b  00 00                             add     [eax],al
 4d2d  00 00                             add     [eax],al
 4d2f  00 00                             add     [eax],al
 4d31  00 00                             add     [eax],al
 4d33  00 00                             add     [eax],al
 4d35  00 00                             add     [eax],al
 4d37  00 00                             add     [eax],al
 4d39  00 00                             add     [eax],al
 4d3b  00 00                             add     [eax],al
 4d3d  00 00                             add     [eax],al
 4d3f  00 00                             add     [eax],al
 4d41  00 00                             add     [eax],al
 4d43  00 00                             add     [eax],al
 4d45  00 00             L322            add     [eax],al
 4d47  00 00                             add     [eax],al
 4d49  00 00             L323            add     [eax],al
 4d4b  00 00                             add     [eax],al
 4d4d  00 00             L324            add     [eax],al
 4d4f  00 00                             add     [eax],al
 4d51  10 00             L325            adc     [eax],al
 4d53  00 00                             add     [eax],al
 4d55  00 00             L326            add     [eax],al
 4d57  00 00                             add     [eax],al
 4d59  00 00             L327            add     [eax],al
 4d5b  00 00                             add     [eax],al
 4d5d  00 00             L328            add     [eax],al
 4d5f  00 00                             add     [eax],al
 4d61  00 00             L329            add     [eax],al
 4d63  00 00                             add     [eax],al
 4d65  00 00             L330            add     [eax],al
 4d67  00 00                             add     [eax],al
 4d69  00 00             L331            add     [eax],al
 4d6b  00 00                             add     [eax],al
 4d6d  00 00             L332            add     [eax],al
 4d6f  00 00                             add     [eax],al
 4d71  00 00             L333            add     [eax],al
 4d73  00 00                             add     [eax],al
 4d75  00 00             L334            add     [eax],al
 4d77  00 00                             add     [eax],al
 4d79  00 00             L335            add     [eax],al
 4d7b  00 00                             add     [eax],al
 4d7d  00 00             L336            add     [eax],al
 4d7f  00 00                             add     [eax],al
 4d81  00 00             L337            add     [eax],al
 4d83  00 00                             add     [eax],al
 4d85  be 85 17 00 00    L338            mov     esi,offset L218
 4d8a  8d 7e 14                          lea     edi,+14H[esi]
 4d8d  c7 05 45 4d 00 00 
       00 01 00 00                       mov     dword ptr L322,00000100H
 4d97  c7 05 49 4d 00 00 
       00 00 00 00                       mov     dword ptr L323,00000000H
 4da1  56                L339            push    esi
 4da2  57                                push    edi
 4da3  8b 46 04                          mov     eax,+4H[esi]
 4da6  8b 5f 04                          mov     ebx,+4H[edi]
 4da9  ba 45 25 00 00                    mov     edx,offset L314
 4dae  3b c3                             cmp     eax,ebx
 4db0  0f 84 f2 00 00 00                 je      L344
 4db6  7c 11                             jl      L340
 4db8  8b c8                             mov     ecx,eax
 4dba  8b c3                             mov     eax,ebx
 4dbc  8b d9                             mov     ebx,ecx
 4dbe  8b ce                             mov     ecx,esi
 4dc0  8b f7                             mov     esi,edi
 4dc2  8b f9                             mov     edi,ecx
 4dc4  ba 45 39 00 00                    mov     edx,offset L318
 4dc9  39 05 45 4d 00 00 L340            cmp     L322,eax
 4dcf  7e 05                             jle     L341
 4dd1  a3 45 4d 00 00                    mov     L322,eax
 4dd6  39 1d 49 4d 00 00 L341            cmp     L323,ebx
 4ddc  7d 06                             jge     L342
 4dde  89 1d 49 4d 00 00                 mov     L323,ebx
 4de4  2b d8             L342            sub     ebx,eax
 4de6  89 1d 4d 4d 00 00                 mov     L324,ebx
 4dec  d9 e8                             fld1    
 4dee  da 35 4d 4d 00 00                 fidiv   dword ptr L324
 4df4  db 06                             fild    dword ptr [esi]
 4df6  db 07                             fild    dword ptr [edi]
 4df8  d8 e1                             fsub    st,st(1)
 4dfa  d8 ca                             fmul    st,st(2)
 4dfc  d9 1d ad 18 00 00                 fstp    dword ptr L233
 4e02  d9 1d 99 18 00 00                 fstp    dword ptr L228
 4e08  d9 46 08                          fld     dword ptr +8H[esi]
 4e0b  d9 47 08                          fld     dword ptr +8H[edi]
 4e0e  d8 e1                             fsub    st,st(1)
 4e10  d8 ca                             fmul    st,st(2)
 4e12  d9 1d b5 18 00 00                 fstp    dword ptr L235
 4e18  d9 1d a1 18 00 00                 fstp    dword ptr L230
 4e1e  d9 46 0c                          fld     dword ptr +0cH[esi]
 4e21  d9 47 0c                          fld     dword ptr +0cH[edi]
 4e24  d8 e1                             fsub    st,st(1)
 4e26  d8 ca                             fmul    st,st(2)
 4e28  d9 1d b9 18 00 00                 fstp    dword ptr L236
 4e2e  d9 1d a5 18 00 00                 fstp    dword ptr L231
 4e34  d9 46 10                          fld     dword ptr +10H[esi]
 4e37  d9 47 10                          fld     dword ptr +10H[edi]
 4e3a  d8 e1                             fsub    st,st(1)
 4e3c  de ca                             fmulp   st(2),st
 4e3e  d9 1d a9 18 00 00                 fstp    dword ptr L232
 4e44  d9 1d bd 18 00 00                 fstp    dword ptr L237
 4e4a  c1 e0 04                          shl     eax,04H
 4e4d  03 c2                             add     eax,edx
 4e4f  d9 05 99 18 00 00 L343            fld     dword ptr L228
 4e55  db 10                             fist    dword ptr [eax]
 4e57  d8 05 ad 18 00 00                 fadd    dword ptr L233
 4e5d  d9 1d 99 18 00 00                 fstp    dword ptr L228
 4e63  d9 05 a1 18 00 00                 fld     dword ptr L230
 4e69  d9 50 04                          fst     dword ptr +4H[eax]
 4e6c  d8 05 b5 18 00 00                 fadd    dword ptr L235
 4e72  d9 1d a1 18 00 00                 fstp    dword ptr L230
 4e78  d9 05 a5 18 00 00                 fld     dword ptr L231
 4e7e  d9 50 08                          fst     dword ptr +8H[eax]
 4e81  d8 05 b9 18 00 00                 fadd    dword ptr L236
 4e87  d9 1d a5 18 00 00                 fstp    dword ptr L231
 4e8d  d9 05 a9 18 00 00                 fld     dword ptr L232
 4e93  d9 50 0c                          fst     dword ptr +0cH[eax]
 4e96  d8 05 bd 18 00 00                 fadd    dword ptr L237
 4e9c  d9 1d a9 18 00 00                 fstp    dword ptr L232
 4ea2  83 c0 10                          add     eax,00000010H
 4ea5  4b                                dec     ebx
 4ea6  75 a7                             jne     L343
 4ea8  5f                L344            pop     edi
 4ea9  5e                                pop     esi
 4eaa  83 c6 28                          add     esi,00000028H
 4ead  83 c7 28                          add     edi,00000028H
 4eb0  ff 0d 75 18 00 00                 dec     dword ptr L219
 4eb6  0f 85 e5 fe ff ff                 jne     L339
 4ebc  8b 2d 45 4d 00 00                 mov     ebp,L322
 4ec2  29 2d 49 4d 00 00                 sub     L323,ebp
 4ec8  0f 8e eb 04 00 00                 jle     L370
 4ece  8b f5                             mov     esi,ebp
 4ed0  c1 e6 04                          shl     esi,04H
 4ed3  89 2d 7d 4d 00 00                 mov     L336,ebp
 4ed9  89 35 81 4d 00 00                 mov     L337,esi
 4edf  8b 1d 81 4d 00 00 L345            mov     ebx,L337
 4ee5  8b 2d 7d 4d 00 00                 mov     ebp,L336
 4eeb  8b bb 45 25 00 00                 mov     edi,L314[ebx]
 4ef1  8b 8b 45 39 00 00                 mov     ecx,L318[ebx]
 4ef7  2b cf                             sub     ecx,edi
 4ef9  0f 8e a1 04 00 00                 jle     L369
 4eff  89 0d 4d 4d 00 00                 mov     L324,ecx
 4f05  03 ff                             add     edi,edi
 4f07  8b 35 2d 02 00 00                 mov     esi,L49
 4f0d  03 3c ae                          add     edi,[esi+ebp*4]
 4f10  8b f7                             mov     esi,edi
 4f12  2b 35 31 02 00 00                 sub     esi,L50
 4f18  03 f6                             add     esi,esi
 4f1a  03 35 23 02 00 00                 add     esi,L43
 4f20  d9 e8                             fld1    
 4f22  d8 b3 49 25 00 00                 fdiv    dword ptr L315[ebx]
 4f28  d9 83 4d 25 00 00                 fld     dword ptr L316[ebx]
 4f2e  d8 c9                             fmul    st,st(1)
 4f30  db 1d 55 4d 00 00                 fistp   dword ptr L326
 4f36  d9 83 51 25 00 00                 fld     dword ptr L317[ebx]
 4f3c  de c9                             fmulp   st(1),st
 4f3e  db 1d 59 4d 00 00                 fistp   dword ptr L327
 4f44  d9 83 49 25 00 00                 fld     dword ptr L315[ebx]
 4f4a  d9 1d 65 4d 00 00                 fstp    dword ptr L330
 4f50  83 e9 10                          sub     ecx,00000010H
 4f53  0f 8e 55 03 00 00                 jle     L364
 4f59  db 05 51 4d 00 00                 fild    dword ptr L325
 4f5f  da 35 4d 4d 00 00                 fidiv   dword ptr L324
 4f65  d9 83 49 25 00 00                 fld     dword ptr L315[ebx]
 4f6b  d9 83 49 39 00 00                 fld     dword ptr L319[ebx]
 4f71  d8 e1                             fsub    st,st(1)
 4f73  d8 ca                             fmul    st,st(2)
 4f75  d9 1d b5 18 00 00                 fstp    dword ptr L235
 4f7b  d9 1d a1 18 00 00                 fstp    dword ptr L230
 4f81  d9 83 4d 25 00 00                 fld     dword ptr L316[ebx]
 4f87  d9 83 4d 39 00 00                 fld     dword ptr L320[ebx]
 4f8d  d8 e1                             fsub    st,st(1)
 4f8f  d8 ca                             fmul    st,st(2)
 4f91  d9 1d b9 18 00 00                 fstp    dword ptr L236
 4f97  d9 1d a5 18 00 00                 fstp    dword ptr L231
 4f9d  d9 83 51 25 00 00                 fld     dword ptr L317[ebx]
 4fa3  d9 83 51 39 00 00                 fld     dword ptr L321[ebx]
 4fa9  d8 e1                             fsub    st,st(1)
 4fab  de ca                             fmulp   st(2),st
 4fad  d9 1d a9 18 00 00                 fstp    dword ptr L232
 4fb3  d9 1d bd 18 00 00                 fstp    dword ptr L237
 4fb9  83 2d 4d 4d 00 00 
       10                L346            sub     dword ptr L324,00000010H
 4fc0  0f 8c e2 02 00 00                 jl      L363
 4fc6  d9 e8                             fld1    
 4fc8  d9 05 a1 18 00 00                 fld     dword ptr L230
 4fce  d9 15 6d 4d 00 00                 fst     dword ptr L332
 4fd4  d8 05 b5 18 00 00                 fadd    dword ptr L235
 4fda  d9 15 71 4d 00 00                 fst     dword ptr L333
 4fe0  d9 15 65 4d 00 00                 fst     dword ptr L330
 4fe6  d9 15 a1 18 00 00                 fst     dword ptr L230
 4fec  de f9                             fdivp   st(1),st
 4fee  d9 05 a5 18 00 00                 fld     dword ptr L231
 4ff4  d8 05 b9 18 00 00                 fadd    dword ptr L236
 4ffa  d9 15 a5 18 00 00                 fst     dword ptr L231
 5000  d8 c9                             fmul    st,st(1)
 5002  db 1d 5d 4d 00 00                 fistp   dword ptr L328
 5008  d9 05 a9 18 00 00                 fld     dword ptr L232
 500e  d8 05 bd 18 00 00                 fadd    dword ptr L237
 5014  d9 15 a9 18 00 00                 fst     dword ptr L232
 501a  de c9                             fmulp   st(1),st
 501c  db 1d 61 4d 00 00                 fistp   dword ptr L329
 5022  d9 e8                             fld1    
 5024  d8 35 6d 4d 00 00                 fdiv    dword ptr L332
 502a  d9 15 6d 4d 00 00                 fst     dword ptr L332
 5030  db 1d 75 4d 00 00                 fistp   dword ptr L334
 5036  d9 e8                             fld1    
 5038  d8 35 71 4d 00 00                 fdiv    dword ptr L333
 503e  d9 1d 71 4d 00 00                 fstp    dword ptr L333
 5044  d9 05 71 4d 00 00                 fld     dword ptr L333
 504a  d8 25 6d 4d 00 00                 fsub    dword ptr L332
 5050  da 35 51 4d 00 00                 fidiv   dword ptr L325
 5056  db 1d 79 4d 00 00                 fistp   dword ptr L335
 505c  8b 15 55 4d 00 00                 mov     edx,L326
 5062  a1 59 4d 00 00                    mov     eax,L327
 5067  8b 0d 5d 4d 00 00                 mov     ecx,L328
 506d  8b 1d 61 4d 00 00                 mov     ebx,L329
 5073  89 0d 55 4d 00 00                 mov     L326,ecx
 5079  89 1d 59 4d 00 00                 mov     L327,ebx
 507f  2b ca                             sub     ecx,edx
 5081  2b d8                             sub     ebx,eax
 5083  c1 f9 04                          sar     ecx,04H
 5086  c1 fb 04                          sar     ebx,04H
 5089  c1 e2 10                          shl     edx,10H
 508c  66 8b d0                          mov     dx,ax
 508f  c1 e1 10                          shl     ecx,10H
 5092  66 8b cb                          mov     cx,bx
 5095  a1 75 4d 00 00                    mov     eax,L334
 509a  8b 2d 79 4d 00 00                 mov     ebp,L335
 50a0  39 06                             cmp     [esi],eax
 50a2  7c 15                             jl      L347
 50a4  89 06                             mov     [esi],eax
 50a6  0f b6 de                          movzx   ebx,dh
 50a9  0f a4 d3 08                       shld    ebx,edx,08H
 50ad  66 64 8b 1c 5d 00 
       00 00 00                          mov     bx,fs:+0H[ebx*2]
 50b6  66 89 1f                          mov     [edi],bx
 50b9  03 d1             L347            add     edx,ecx
 50bb  03 c5                             add     eax,ebp
 50bd  39 46 04                          cmp     +4H[esi],eax
 50c0  7c 17                             jl      L348
 50c2  89 46 04                          mov     +4H[esi],eax
 50c5  0f b6 de                          movzx   ebx,dh
 50c8  0f a4 d3 08                       shld    ebx,edx,08H
 50cc  66 64 8b 1c 5d 00 
       00 00 00                          mov     bx,fs:+0H[ebx*2]
 50d5  66 89 5f 02                       mov     +2H[edi],bx
 50d9  03 d1             L348            add     edx,ecx
 50db  03 c5                             add     eax,ebp
 50dd  39 46 08                          cmp     +8H[esi],eax
 50e0  7c 17                             jl      L349
 50e2  89 46 08                          mov     +8H[esi],eax
 50e5  0f b6 de                          movzx   ebx,dh
 50e8  0f a4 d3 08                       shld    ebx,edx,08H
 50ec  66 64 8b 1c 5d 00 
       00 00 00                          mov     bx,fs:+0H[ebx*2]
 50f5  66 89 5f 04                       mov     +4H[edi],bx
 50f9  03 d1             L349            add     edx,ecx
 50fb  03 c5                             add     eax,ebp
 50fd  39 46 0c                          cmp     +0cH[esi],eax
 5100  7c 17                             jl      L350
 5102  89 46 0c                          mov     +0cH[esi],eax
 5105  0f b6 de                          movzx   ebx,dh
 5108  0f a4 d3 08                       shld    ebx,edx,08H
 510c  66 64 8b 1c 5d 00 
       00 00 00                          mov     bx,fs:+0H[ebx*2]
 5115  66 89 5f 06                       mov     +6H[edi],bx
 5119  03 d1             L350            add     edx,ecx
 511b  03 c5                             add     eax,ebp
 511d  39 46 10                          cmp     +10H[esi],eax
 5120  7c 17                             jl      L351
 5122  89 46 10                          mov     +10H[esi],eax
 5125  0f b6 de                          movzx   ebx,dh
 5128  0f a4 d3 08                       shld    ebx,edx,08H
 512c  66 64 8b 1c 5d 00 
       00 00 00                          mov     bx,fs:+0H[ebx*2]
 5135  66 89 5f 08                       mov     +8H[edi],bx
 5139  03 d1             L351            add     edx,ecx
 513b  03 c5                             add     eax,ebp
 513d  39 46 14                          cmp     +14H[esi],eax
 5140  7c 17                             jl      L352
 5142  89 46 14                          mov     +14H[esi],eax
 5145  0f b6 de                          movzx   ebx,dh
 5148  0f a4 d3 08                       shld    ebx,edx,08H
 514c  66 64 8b 1c 5d 00 
       00 00 00                          mov     bx,fs:+0H[ebx*2]
 5155  66 89 5f 0a                       mov     +0aH[edi],bx
 5159  03 d1             L352            add     edx,ecx
 515b  03 c5                             add     eax,ebp
 515d  39 46 18                          cmp     +18H[esi],eax
 5160  7c 17                             jl      L353
 5162  89 46 18                          mov     +18H[esi],eax
 5165  0f b6 de                          movzx   ebx,dh
 5168  0f a4 d3 08                       shld    ebx,edx,08H
 516c  66 64 8b 1c 5d 00 
       00 00 00                          mov     bx,fs:+0H[ebx*2]
 5175  66 89 5f 0c                       mov     +0cH[edi],bx
 5179  03 d1             L353            add     edx,ecx
 517b  03 c5                             add     eax,ebp
 517d  39 46 1c                          cmp     +1cH[esi],eax
 5180  7c 17                             jl      L354
 5182  89 46 1c                          mov     +1cH[esi],eax
 5185  0f b6 de                          movzx   ebx,dh
 5188  0f a4 d3 08                       shld    ebx,edx,08H
 518c  66 64 8b 1c 5d 00 
       00 00 00                          mov     bx,fs:+0H[ebx*2]
 5195  66 89 5f 0e                       mov     +0eH[edi],bx
 5199  03 d1             L354            add     edx,ecx
 519b  03 c5                             add     eax,ebp
 519d  39 46 20                          cmp     +20H[esi],eax
 51a0  7c 17                             jl      L355
 51a2  89 46 20                          mov     +20H[esi],eax
 51a5  0f b6 de                          movzx   ebx,dh
 51a8  0f a4 d3 08                       shld    ebx,edx,08H
 51ac  66 64 8b 1c 5d 00 
       00 00 00                          mov     bx,fs:+0H[ebx*2]
 51b5  66 89 5f 10                       mov     +10H[edi],bx
 51b9  03 d1             L355            add     edx,ecx
 51bb  03 c5                             add     eax,ebp
 51bd  39 46 24                          cmp     +24H[esi],eax
 51c0  7c 17                             jl      L356
 51c2  89 46 24                          mov     +24H[esi],eax
 51c5  0f b6 de                          movzx   ebx,dh
 51c8  0f a4 d3 08                       shld    ebx,edx,08H
 51cc  66 64 8b 1c 5d 00 
       00 00 00                          mov     bx,fs:+0H[ebx*2]
 51d5  66 89 5f 12                       mov     +12H[edi],bx
 51d9  03 d1             L356            add     edx,ecx
 51db  03 c5                             add     eax,ebp
 51dd  39 46 28                          cmp     +28H[esi],eax
 51e0  7c 17                             jl      L357
 51e2  89 46 28                          mov     +28H[esi],eax
 51e5  0f b6 de                          movzx   ebx,dh
 51e8  0f a4 d3 08                       shld    ebx,edx,08H
 51ec  66 64 8b 1c 5d 00 
       00 00 00                          mov     bx,fs:+0H[ebx*2]
 51f5  66 89 5f 14                       mov     +14H[edi],bx
 51f9  03 d1             L357            add     edx,ecx
 51fb  03 c5                             add     eax,ebp
 51fd  39 46 2c                          cmp     +2cH[esi],eax
 5200  7c 17                             jl      L358
 5202  89 46 2c                          mov     +2cH[esi],eax
 5205  0f b6 de                          movzx   ebx,dh
 5208  0f a4 d3 08                       shld    ebx,edx,08H
 520c  66 64 8b 1c 5d 00 
       00 00 00                          mov     bx,fs:+0H[ebx*2]
 5215  66 89 5f 16                       mov     +16H[edi],bx
 5219  03 d1             L358            add     edx,ecx
 521b  03 c5                             add     eax,ebp
 521d  39 46 30                          cmp     +30H[esi],eax
 5220  7c 17                             jl      L359
 5222  89 46 30                          mov     +30H[esi],eax
 5225  0f b6 de                          movzx   ebx,dh
 5228  0f a4 d3 08                       shld    ebx,edx,08H
 522c  66 64 8b 1c 5d 00 
       00 00 00                          mov     bx,fs:+0H[ebx*2]
 5235  66 89 5f 18                       mov     +18H[edi],bx
 5239  03 d1             L359            add     edx,ecx
 523b  03 c5                             add     eax,ebp
 523d  39 46 34                          cmp     +34H[esi],eax
 5240  7c 17                             jl      L360
 5242  89 46 34                          mov     +34H[esi],eax
 5245  0f b6 de                          movzx   ebx,dh
 5248  0f a4 d3 08                       shld    ebx,edx,08H
 524c  66 64 8b 1c 5d 00 
       00 00 00                          mov     bx,fs:+0H[ebx*2]
 5255  66 89 5f 1a                       mov     +1aH[edi],bx
 5259  03 d1             L360            add     edx,ecx
 525b  03 c5                             add     eax,ebp
 525d  39 46 38                          cmp     +38H[esi],eax
 5260  7c 17                             jl      L361
 5262  89 46 38                          mov     +38H[esi],eax
 5265  0f b6 de                          movzx   ebx,dh
 5268  0f a4 d3 08                       shld    ebx,edx,08H
 526c  66 64 8b 1c 5d 00 
       00 00 00                          mov     bx,fs:+0H[ebx*2]
 5275  66 89 5f 1c                       mov     +1cH[edi],bx
 5279  03 d1             L361            add     edx,ecx
 527b  03 c5                             add     eax,ebp
 527d  39 46 3c                          cmp     +3cH[esi],eax
 5280  7c 17                             jl      L362
 5282  89 46 3c                          mov     +3cH[esi],eax
 5285  0f b6 de                          movzx   ebx,dh
 5288  0f a4 d3 08                       shld    ebx,edx,08H
 528c  66 64 8b 1c 5d 00 
       00 00 00                          mov     bx,fs:+0H[ebx*2]
 5295  66 89 5f 1e                       mov     +1eH[edi],bx
 5299  03 d1             L362            add     edx,ecx
 529b  03 c5                             add     eax,ebp
 529d  83 c6 40                          add     esi,00000040H
 52a0  83 c7 20                          add     edi,00000020H
 52a3  e9 11 fd ff ff                    jmp     L346
 52a8  8b 0d 4d 4d 00 00 L363            mov     ecx,L324
 52ae  83 c1 10          L364            add     ecx,00000010H
 52b1  0f 84 e9 00 00 00                 je      L369
 52b7  89 0d 4d 4d 00 00                 mov     L324,ecx
 52bd  8b 1d 81 4d 00 00                 mov     ebx,L337
 52c3  d9 83 49 39 00 00                 fld     dword ptr L319[ebx]
 52c9  d9 1d 69 4d 00 00                 fstp    dword ptr L331
 52cf  d9 e8                             fld1    
 52d1  d8 35 65 4d 00 00                 fdiv    dword ptr L330
 52d7  d9 1d a1 18 00 00                 fstp    dword ptr L230
 52dd  d9 e8                             fld1    
 52df  d8 35 69 4d 00 00                 fdiv    dword ptr L331
 52e5  d9 1d b5 18 00 00                 fstp    dword ptr L235
 52eb  d9 05 a1 18 00 00                 fld     dword ptr L230
 52f1  db 1d 75 4d 00 00                 fistp   dword ptr L334
 52f7  d9 05 b5 18 00 00                 fld     dword ptr L235
 52fd  d8 25 a1 18 00 00                 fsub    dword ptr L230
 5303  da 35 4d 4d 00 00                 fidiv   dword ptr L324
 5309  db 1d 79 4d 00 00                 fistp   dword ptr L335
 530f  d9 e8                             fld1    
 5311  d8 b3 49 39 00 00                 fdiv    dword ptr L319[ebx]
 5317  d9 83 4d 39 00 00                 fld     dword ptr L320[ebx]
 531d  d8 c9                             fmul    st,st(1)
 531f  db 1d 5d 4d 00 00                 fistp   dword ptr L328
 5325  d9 83 51 39 00 00                 fld     dword ptr L321[ebx]
 532b  de c9                             fmulp   st(1),st
 532d  db 1d 61 4d 00 00                 fistp   dword ptr L329
 5333  a1 5d 4d 00 00                    mov     eax,L328
 5338  2b 05 55 4d 00 00                 sub     eax,L326
 533e  99                                cdq     
 533f  f7 f9                             idiv    ecx
 5341  66 a3 93 53 00 00                 mov     L368,ax
 5347  a1 61 4d 00 00                    mov     eax,L329
 534c  2b 05 59 4d 00 00                 sub     eax,L327
 5352  99                                cdq     
 5353  f7 f9                             idiv    ecx
 5355  66 a3 91 53 00 00                 mov     L367,ax
 535b  8b 15 55 4d 00 00                 mov     edx,L326
 5361  c1 e2 10                          shl     edx,10H
 5364  66 8b 15 59 4d 00 
       00                                mov     dx,L327
 536b  a1 75 4d 00 00                    mov     eax,L334
 5370  8b 2d 79 4d 00 00                 mov     ebp,L335
 5376  39 06             L365            cmp     [esi],eax
 5378  7c 15                             jl      L366
 537a  89 06                             mov     [esi],eax
 537c  0f b6 de                          movzx   ebx,dh
 537f  0f a4 d3 08                       shld    ebx,edx,08H
 5383  66 64 8b 1c 5d 00 
       00 00 00                          mov     bx,fs:+0H[ebx*2]
 538c  66 89 1f                          mov     [edi],bx
 538f  81 c2 11 11 11 11 L366            add     edx,11111111H
 5395  03 c5                             add     eax,ebp
 5397  83 c7 02                          add     edi,00000002H
 539a  83 c6 04                          add     esi,00000004H
 539d  49                                dec     ecx
 539e  75 d6                             jne     L365
 53a0  ff 05 7d 4d 00 00 L369            inc     dword ptr L336
 53a6  83 05 81 4d 00 00 
       10                                add     dword ptr L337,00000010H
 53ad  ff 0d 49 4d 00 00                 dec     dword ptr L323
 53b3  0f 85 26 fb ff ff                 jne     L345
 53b9  c3                L370            ret     
 53ba  bf 85 17 00 00    L371            mov     edi,offset L218
 53bf  c7 05 75 18 00 00 
       00 00 00 00                       mov     dword ptr L219,00000000H
 53c9  c7 05 79 18 00 00 
       00 00 00 00                       mov     dword ptr L220,00000000H
 53d3  c7 05 7d 18 00 00 
       00 00 00 00                       mov     dword ptr L221,00000000H
 53dd  c7 05 81 18 00 00 
       00 00 00 00                       mov     dword ptr L222,00000000H
 53e7  b9 03 00 00 00                    mov     ecx,00000003H
 53ec  8b 1e             L372            mov     ebx,[esi]
 53ee  8b 56 04                          mov     edx,+4H[esi]
 53f1  8b 84 5b 11 11 11 
       11                                mov     eax,+11111111H[ebx+ebx*2]
 53f8  a3 99 18 00 00                    mov     L228,eax
 53fd  8b 84 5b 11 11 11 
       11                                mov     eax,+11111111H[ebx+ebx*2]
 5404  a3 9d 18 00 00                    mov     L229,eax
 5409  d9 84 5b 11 11 11 
       11                                fld     dword ptr +11111111H[ebx+ebx*2]
 5410  db 15 51 19 00 00                 fist    dword ptr L274
 5416  d9 1d a1 18 00 00                 fstp    dword ptr L230
 541c  8b 44 5d 00                       mov     eax,+0H[ebp+ebx*2]
 5420  a3 a5 18 00 00                    mov     L231,eax
 5425  8b 44 5d 04                       mov     eax,+4H[ebp+ebx*2]
 5429  a3 a9 18 00 00                    mov     L232,eax
 542e  8b 84 52 11 11 11 
       11                                mov     eax,+11111111H[edx+edx*2]
 5435  a3 ad 18 00 00                    mov     L233,eax
 543a  8b 84 52 11 11 11 
       11                                mov     eax,+11111111H[edx+edx*2]
 5441  a3 b1 18 00 00                    mov     L234,eax
 5446  d9 84 52 11 11 11 
       11                                fld     dword ptr +11111111H[edx+edx*2]
 544d  db 15 55 19 00 00                 fist    dword ptr L275
 5453  d9 1d b5 18 00 00                 fstp    dword ptr L235
 5459  8b 44 55 00                       mov     eax,+0H[ebp+edx*2]
 545d  a3 b9 18 00 00                    mov     L236,eax
 5462  8b 44 55 04                       mov     eax,+4H[ebp+edx*2]
 5466  a3 bd 18 00 00                    mov     L237,eax
 546b  81 3d 51 19 00 00 
       11 11 11 11                       cmp     dword ptr L274,11111111H
 5475  0f 8d 11 01 00 00                 jge     L383
 547b  81 3d 55 19 00 00 
       11 11 11 11                       cmp     dword ptr L275,11111111H
 5485  0f 8c e5 08 00 00                 jl      L401
 548b  ff 05 79 18 00 00                 inc     dword ptr L220
 5491  d9 05 85 18 00 00                 fld     dword ptr L223
 5497  d8 25 a1 18 00 00                 fsub    dword ptr L230
 549d  d9 05 b5 18 00 00                 fld     dword ptr L235
 54a3  d8 25 a1 18 00 00                 fsub    dword ptr L230
 54a9  de f9                             fdivp   st(1),st
 54ab  d9 e8                             fld1    
 54ad  d8 35 85 18 00 00                 fdiv    dword ptr L223
 54b3  d9 05 ad 18 00 00                 fld     dword ptr L233
 54b9  d8 25 99 18 00 00                 fsub    dword ptr L228
 54bf  d8 ca                             fmul    st,st(2)
 54c1  d8 05 99 18 00 00                 fadd    dword ptr L228
 54c7  d8 0d 89 18 00 00                 fmul    dword ptr L224
 54cd  d8 c9                             fmul    st,st(1)
 54cf  d8 05 91 18 00 00                 fadd    dword ptr L226
 54d5  db 15 d5 18 00 00                 fist    dword ptr L243
 54db  db 1d 99 18 00 00                 fistp   dword ptr L228
 54e1  d9 05 b1 18 00 00                 fld     dword ptr L234
 54e7  d8 25 9d 18 00 00                 fsub    dword ptr L229
 54ed  d8 ca                             fmul    st,st(2)
 54ef  d8 05 9d 18 00 00                 fadd    dword ptr L229
 54f5  d8 0d 8d 18 00 00                 fmul    dword ptr L225
 54fb  de c9                             fmulp   st(1),st
 54fd  d8 05 95 18 00 00                 fadd    dword ptr L227
 5503  db 15 d9 18 00 00                 fist    dword ptr L244
 5509  db 1d 9d 18 00 00                 fistp   dword ptr L229
 550f  d9 05 b5 18 00 00                 fld     dword ptr L235
 5515  d8 25 a1 18 00 00                 fsub    dword ptr L230
 551b  d8 c9                             fmul    st,st(1)
 551d  d8 05 a1 18 00 00                 fadd    dword ptr L230
 5523  d9 15 e1 18 00 00                 fst     dword ptr L246
 5529  d9 1d a1 18 00 00                 fstp    dword ptr L230
 552f  d9 05 b9 18 00 00                 fld     dword ptr L236
 5535  d8 25 a5 18 00 00                 fsub    dword ptr L231
 553b  d8 c9                             fmul    st,st(1)
 553d  d8 05 a5 18 00 00                 fadd    dword ptr L231
 5543  d9 15 dd 18 00 00                 fst     dword ptr L245
 5549  d9 1d a5 18 00 00                 fstp    dword ptr L231
 554f  d9 05 bd 18 00 00                 fld     dword ptr L237
 5555  d8 25 a9 18 00 00                 fsub    dword ptr L232
 555b  de c9                             fmulp   st(1),st
 555d  d8 05 a9 18 00 00                 fadd    dword ptr L232
 5563  d9 15 e5 18 00 00                 fst     dword ptr L247
 5569  d9 1d a9 18 00 00                 fstp    dword ptr L232
 556f  8b 04 55 11 11 11 
       11                                mov     eax,+11111111H[edx*2]
 5576  a3 ad 18 00 00                    mov     L233,eax
 557b  8b 04 55 11 11 11 
       11                                mov     eax,+11111111H[edx*2]
 5582  a3 b1 18 00 00                    mov     L234,eax
 5587  e9 3e 01 00 00                    jmp     L392
 558c  81 3d 55 19 00 00 
       11 11 11 11       L383            cmp     dword ptr L275,11111111H
 5596  0f 8d fe 00 00 00                 jge     L387
 559c  ff 05 79 18 00 00                 inc     dword ptr L220
 55a2  d9 05 85 18 00 00                 fld     dword ptr L223
 55a8  d8 25 b5 18 00 00                 fsub    dword ptr L235
 55ae  d9 05 a1 18 00 00                 fld     dword ptr L230
 55b4  d8 25 b5 18 00 00                 fsub    dword ptr L235
 55ba  de f9                             fdivp   st(1),st
 55bc  d9 e8                             fld1    
 55be  d8 35 85 18 00 00                 fdiv    dword ptr L223
 55c4  d9 05 99 18 00 00                 fld     dword ptr L228
 55ca  d8 25 ad 18 00 00                 fsub    dword ptr L233
 55d0  d8 ca                             fmul    st,st(2)
 55d2  d8 05 ad 18 00 00                 fadd    dword ptr L233
 55d8  d8 0d 89 18 00 00                 fmul    dword ptr L224
 55de  d8 c9                             fmul    st,st(1)
 55e0  d8 05 91 18 00 00                 fadd    dword ptr L226
 55e6  db 15 c1 18 00 00                 fist    dword ptr L238
 55ec  db 1d ad 18 00 00                 fistp   dword ptr L233
 55f2  d9 05 9d 18 00 00                 fld     dword ptr L229
 55f8  d8 25 b1 18 00 00                 fsub    dword ptr L234
 55fe  d8 ca                             fmul    st,st(2)
 5600  d8 05 b1 18 00 00                 fadd    dword ptr L234
 5606  d8 0d 8d 18 00 00                 fmul    dword ptr L225
 560c  de c9                             fmulp   st(1),st
 560e  d8 05 95 18 00 00                 fadd    dword ptr L227
 5614  db 15 c5 18 00 00                 fist    dword ptr L239
 561a  db 1d b1 18 00 00                 fistp   dword ptr L234
 5620  d9 05 a1 18 00 00                 fld     dword ptr L230
 5626  d8 25 b5 18 00 00                 fsub    dword ptr L235
 562c  d8 c9                             fmul    st,st(1)
 562e  d8 05 b5 18 00 00                 fadd    dword ptr L235
 5634  d9 15 cd 18 00 00                 fst     dword ptr L241
 563a  d9 1d b5 18 00 00                 fstp    dword ptr L235
 5640  d9 05 a5 18 00 00                 fld     dword ptr L231
 5646  d8 25 b9 18 00 00                 fsub    dword ptr L236
 564c  d8 c9                             fmul    st,st(1)
 564e  d8 05 b9 18 00 00                 fadd    dword ptr L236
 5654  d9 15 c9 18 00 00                 fst     dword ptr L240
 565a  d9 1d b9 18 00 00                 fstp    dword ptr L236
 5660  d9 05 a9 18 00 00                 fld     dword ptr L232
 5666  d8 25 bd 18 00 00                 fsub    dword ptr L237
 566c  de c9                             fmulp   st(1),st
 566e  d8 05 bd 18 00 00                 fadd    dword ptr L237
 5674  d9 15 d1 18 00 00                 fst     dword ptr L242
 567a  d9 1d bd 18 00 00                 fstp    dword ptr L237
 5680  8b 04 5d 11 11 11 
       11                                mov     eax,+11111111H[ebx*2]
 5687  a3 99 18 00 00                    mov     L228,eax
 568c  8b 04 5d 11 11 11 
       11                                mov     eax,+11111111H[ebx*2]
 5693  a3 9d 18 00 00                    mov     L229,eax
 5698  eb 30                             jmp     L392
 569a  8b 04 5d 11 11 11 
       11                L387            mov     eax,+11111111H[ebx*2]
 56a1  a3 99 18 00 00                    mov     L228,eax
 56a6  8b 04 5d 11 11 11 
       11                                mov     eax,+11111111H[ebx*2]
 56ad  a3 9d 18 00 00                    mov     L229,eax
 56b2  8b 04 55 11 11 11 
       11                                mov     eax,+11111111H[edx*2]
 56b9  a3 ad 18 00 00                    mov     L233,eax
 56be  8b 04 55 11 11 11 
       11                                mov     eax,+11111111H[edx*2]
 56c5  a3 b1 18 00 00                    mov     L234,eax
 56ca  a1 c5 02 00 00    L392            mov     eax,L96
 56cf  39 05 99 18 00 00                 cmp     L228,eax
 56d5  0f 8d cd 00 00 00                 jge     L393
 56db  39 05 ad 18 00 00                 cmp     L233,eax
 56e1  0f 8c 89 06 00 00                 jl      L401
 56e7  ff 05 7d 18 00 00                 inc     dword ptr L221
 56ed  a1 c5 02 00 00                    mov     eax,L96
 56f2  2b 05 99 18 00 00                 sub     eax,L228
 56f8  a3 4d 4d 00 00                    mov     L324,eax
 56fd  db 05 4d 4d 00 00                 fild    dword ptr L324
 5703  a1 ad 18 00 00                    mov     eax,L233
 5708  2b 05 99 18 00 00                 sub     eax,L228
 570e  a3 4d 4d 00 00                    mov     L324,eax
 5713  da 35 4d 4d 00 00                 fidiv   dword ptr L324
 5719  a1 c5 02 00 00                    mov     eax,L96
 571e  a3 99 18 00 00                    mov     L228,eax
 5723  a3 f1 18 00 00                    mov     L250,eax
 5728  db 05 b1 18 00 00                 fild    dword ptr L234
 572e  da 25 9d 18 00 00                 fisub   dword ptr L229
 5734  d8 c9                             fmul    st,st(1)
 5736  da 05 9d 18 00 00                 fiadd   dword ptr L229
 573c  db 15 f5 18 00 00                 fist    dword ptr L251
 5742  db 1d 9d 18 00 00                 fistp   dword ptr L229
 5748  d9 05 b5 18 00 00                 fld     dword ptr L235
 574e  d8 25 a1 18 00 00                 fsub    dword ptr L230
 5754  d8 c9                             fmul    st,st(1)
 5756  d8 05 a1 18 00 00                 fadd    dword ptr L230
 575c  d9 15 fd 18 00 00                 fst     dword ptr L253
 5762  d9 1d a1 18 00 00                 fstp    dword ptr L230
 5768  d9 05 b9 18 00 00                 fld     dword ptr L236
 576e  d8 25 a5 18 00 00                 fsub    dword ptr L231
 5774  d8 c9                             fmul    st,st(1)
 5776  d8 05 a5 18 00 00                 fadd    dword ptr L231
 577c  d9 15 f9 18 00 00                 fst     dword ptr L252
 5782  d9 1d a5 18 00 00                 fstp    dword ptr L231
 5788  d9 05 bd 18 00 00                 fld     dword ptr L237
 578e  d8 25 a9 18 00 00                 fsub    dword ptr L232
 5794  de c9                             fmulp   st(1),st
 5796  d8 05 a9 18 00 00                 fadd    dword ptr L232
 579c  d9 15 01 19 00 00                 fst     dword ptr L254
 57a2  d9 1d a9 18 00 00                 fstp    dword ptr L232
 57a8  a1 c9 02 00 00    L393            mov     eax,L97
 57ad  39 05 ad 18 00 00                 cmp     L233,eax
 57b3  0f 8e cd 00 00 00                 jle     L394
 57b9  39 05 99 18 00 00                 cmp     L228,eax
 57bf  0f 8f ab 05 00 00                 jg      L401
 57c5  ff 05 81 18 00 00                 inc     dword ptr L222
 57cb  a1 c9 02 00 00                    mov     eax,L97
 57d0  2b 05 99 18 00 00                 sub     eax,L228
 57d6  a3 4d 4d 00 00                    mov     L324,eax
 57db  db 05 4d 4d 00 00                 fild    dword ptr L324
 57e1  a1 ad 18 00 00                    mov     eax,L233
 57e6  2b 05 99 18 00 00                 sub     eax,L228
 57ec  a3 4d 4d 00 00                    mov     L324,eax
 57f1  da 35 4d 4d 00 00                 fidiv   dword ptr L324
 57f7  a1 c9 02 00 00                    mov     eax,L97
 57fc  a3 ad 18 00 00                    mov     L233,eax
 5801  a3 35 19 00 00                    mov     L267,eax
 5806  db 05 b1 18 00 00                 fild    dword ptr L234
 580c  da 25 9d 18 00 00                 fisub   dword ptr L229
 5812  d8 c9                             fmul    st,st(1)
 5814  da 05 9d 18 00 00                 fiadd   dword ptr L229
 581a  db 15 39 19 00 00                 fist    dword ptr L268
 5820  db 1d b1 18 00 00                 fistp   dword ptr L234
 5826  d9 05 b5 18 00 00                 fld     dword ptr L235
 582c  d8 25 a1 18 00 00                 fsub    dword ptr L230
 5832  d8 c9                             fmul    st,st(1)
 5834  d8 05 a1 18 00 00                 fadd    dword ptr L230
 583a  d9 15 41 19 00 00                 fst     dword ptr L270
 5840  d9 1d b5 18 00 00                 fstp    dword ptr L235
 5846  d9 05 b9 18 00 00                 fld     dword ptr L236
 584c  d8 25 a5 18 00 00                 fsub    dword ptr L231
 5852  d8 c9                             fmul    st,st(1)
 5854  d8 05 a5 18 00 00                 fadd    dword ptr L231
 585a  d9 15 3d 19 00 00                 fst     dword ptr L269
 5860  d9 1d b9 18 00 00                 fstp    dword ptr L236
 5866  d9 05 bd 18 00 00                 fld     dword ptr L237
 586c  d8 25 a9 18 00 00                 fsub    dword ptr L232
 5872  de c9                             fmulp   st(1),st
 5874  d8 05 a9 18 00 00                 fadd    dword ptr L232
 587a  d9 15 45 19 00 00                 fst     dword ptr L271
 5880  d9 1d bd 18 00 00                 fstp    dword ptr L237
 5886  a1 c5 02 00 00    L394            mov     eax,L96
 588b  39 05 ad 18 00 00                 cmp     L233,eax
 5891  0f 8d cd 00 00 00                 jge     L395
 5897  39 05 99 18 00 00                 cmp     L228,eax
 589d  0f 8c cd 04 00 00                 jl      L401
 58a3  ff 05 7d 18 00 00                 inc     dword ptr L221
 58a9  a1 c5 02 00 00                    mov     eax,L96
 58ae  2b 05 ad 18 00 00                 sub     eax,L233
 58b4  a3 4d 4d 00 00                    mov     L324,eax
 58b9  db 05 4d 4d 00 00                 fild    dword ptr L324
 58bf  a1 99 18 00 00                    mov     eax,L228
 58c4  2b 05 ad 18 00 00                 sub     eax,L233
 58ca  a3 4d 4d 00 00                    mov     L324,eax
 58cf  da 35 4d 4d 00 00                 fidiv   dword ptr L324
 58d5  a1 c5 02 00 00                    mov     eax,L96
 58da  a3 ad 18 00 00                    mov     L233,eax
 58df  a3 05 19 00 00                    mov     L255,eax
 58e4  db 05 9d 18 00 00                 fild    dword ptr L229
 58ea  da 25 b1 18 00 00                 fisub   dword ptr L234
 58f0  d8 c9                             fmul    st,st(1)
 58f2  da 05 b1 18 00 00                 fiadd   dword ptr L234
 58f8  db 15 09 19 00 00                 fist    dword ptr L256
 58fe  db 1d b1 18 00 00                 fistp   dword ptr L234
 5904  d9 05 a1 18 00 00                 fld     dword ptr L230
 590a  d8 25 b5 18 00 00                 fsub    dword ptr L235
 5910  d8 c9                             fmul    st,st(1)
 5912  d8 05 b5 18 00 00                 fadd    dword ptr L235
 5918  d9 15 11 19 00 00                 fst     dword ptr L258
 591e  d9 1d b5 18 00 00                 fstp    dword ptr L235
 5924  d9 05 a5 18 00 00                 fld     dword ptr L231
 592a  d8 25 b9 18 00 00                 fsub    dword ptr L236
 5930  d8 c9                             fmul    st,st(1)
 5932  d8 05 b9 18 00 00                 fadd    dword ptr L236
 5938  d9 15 0d 19 00 00                 fst     dword ptr L257
 593e  d9 1d b9 18 00 00                 fstp    dword ptr L236
 5944  d9 05 a9 18 00 00                 fld     dword ptr L232
 594a  d8 25 bd 18 00 00                 fsub    dword ptr L237
 5950  de c9                             fmulp   st(1),st
 5952  d8 05 bd 18 00 00                 fadd    dword ptr L237
 5958  d9 15 15 19 00 00                 fst     dword ptr L259
 595e  d9 1d bd 18 00 00                 fstp    dword ptr L237
 5964  a1 c9 02 00 00    L395            mov     eax,L97
 5969  39 05 99 18 00 00                 cmp     L228,eax
 596f  0f 8e cd 00 00 00                 jle     L396
 5975  39 05 ad 18 00 00                 cmp     L233,eax
 597b  0f 8f ef 03 00 00                 jg      L401
 5981  ff 05 81 18 00 00                 inc     dword ptr L222
 5987  a1 c9 02 00 00                    mov     eax,L97
 598c  2b 05 ad 18 00 00                 sub     eax,L233
 5992  a3 4d 4d 00 00                    mov     L324,eax
 5997  db 05 4d 4d 00 00                 fild    dword ptr L324
 599d  a1 99 18 00 00                    mov     eax,L228
 59a2  2b 05 ad 18 00 00                 sub     eax,L233
 59a8  a3 4d 4d 00 00                    mov     L324,eax
 59ad  da 35 4d 4d 00 00                 fidiv   dword ptr L324
 59b3  a1 c9 02 00 00                    mov     eax,L97
 59b8  a3 99 18 00 00                    mov     L228,eax
 59bd  a3 21 19 00 00                    mov     L262,eax
 59c2  db 05 9d 18 00 00                 fild    dword ptr L229
 59c8  da 25 b1 18 00 00                 fisub   dword ptr L234
 59ce  d8 c9                             fmul    st,st(1)
 59d0  da 05 b1 18 00 00                 fiadd   dword ptr L234
 59d6  db 15 25 19 00 00                 fist    dword ptr L263
 59dc  db 1d 9d 18 00 00                 fistp   dword ptr L229
 59e2  d9 05 a1 18 00 00                 fld     dword ptr L230
 59e8  d8 25 b5 18 00 00                 fsub    dword ptr L235
 59ee  d8 c9                             fmul    st,st(1)
 59f0  d8 05 b5 18 00 00                 fadd    dword ptr L235
 59f6  d9 15 2d 19 00 00                 fst     dword ptr L265
 59fc  d9 1d a1 18 00 00                 fstp    dword ptr L230
 5a02  d9 05 a5 18 00 00                 fld     dword ptr L231
 5a08  d8 25 b9 18 00 00                 fsub    dword ptr L236
 5a0e  d8 c9                             fmul    st,st(1)
 5a10  d8 05 b9 18 00 00                 fadd    dword ptr L236
 5a16  d9 15 29 19 00 00                 fst     dword ptr L264
 5a1c  d9 1d a5 18 00 00                 fstp    dword ptr L231
 5a22  d9 05 a9 18 00 00                 fld     dword ptr L232
 5a28  d8 25 bd 18 00 00                 fsub    dword ptr L237
 5a2e  de c9                             fmulp   st(1),st
 5a30  d8 05 bd 18 00 00                 fadd    dword ptr L237
 5a36  d9 15 31 19 00 00                 fst     dword ptr L266
 5a3c  d9 1d a9 18 00 00                 fstp    dword ptr L232
 5a42  a1 cd 02 00 00    L396            mov     eax,L98
 5a47  39 05 9d 18 00 00                 cmp     L229,eax
 5a4d  0f 8d aa 00 00 00                 jge     L397
 5a53  39 05 b1 18 00 00                 cmp     L234,eax
 5a59  0f 8c 11 03 00 00                 jl      L401
 5a5f  a1 cd 02 00 00                    mov     eax,L98
 5a64  2b 05 9d 18 00 00                 sub     eax,L229
 5a6a  a3 4d 4d 00 00                    mov     L324,eax
 5a6f  db 05 4d 4d 00 00                 fild    dword ptr L324
 5a75  a1 b1 18 00 00                    mov     eax,L234
 5a7a  2b 05 9d 18 00 00                 sub     eax,L229
 5a80  a3 4d 4d 00 00                    mov     L324,eax
 5a85  da 35 4d 4d 00 00                 fidiv   dword ptr L324
 5a8b  a1 cd 02 00 00                    mov     eax,L98
 5a90  a3 9d 18 00 00                    mov     L229,eax
 5a95  db 05 ad 18 00 00                 fild    dword ptr L233
 5a9b  da 25 99 18 00 00                 fisub   dword ptr L228
 5aa1  d8 c9                             fmul    st,st(1)
 5aa3  da 05 99 18 00 00                 fiadd   dword ptr L228
 5aa9  db 1d 99 18 00 00                 fistp   dword ptr L228
 5aaf  d9 05 b5 18 00 00                 fld     dword ptr L235
 5ab5  d8 25 a1 18 00 00                 fsub    dword ptr L230
 5abb  d8 c9                             fmul    st,st(1)
 5abd  d8 05 a1 18 00 00                 fadd    dword ptr L230
 5ac3  d9 1d a1 18 00 00                 fstp    dword ptr L230
 5ac9  d9 05 b9 18 00 00                 fld     dword ptr L236
 5acf  d8 25 a5 18 00 00                 fsub    dword ptr L231
 5ad5  d8 c9                             fmul    st,st(1)
 5ad7  d8 05 a5 18 00 00                 fadd    dword ptr L231
 5add  d9 1d a5 18 00 00                 fstp    dword ptr L231
 5ae3  d9 05 bd 18 00 00                 fld     dword ptr L237
 5ae9  d8 25 a9 18 00 00                 fsub    dword ptr L232
 5aef  de c9                             fmulp   st(1),st
 5af1  d8 05 a9 18 00 00                 fadd    dword ptr L232
 5af7  d9 1d a9 18 00 00                 fstp    dword ptr L232
 5afd  a1 d1 02 00 00    L397            mov     eax,L99
 5b02  39 05 b1 18 00 00                 cmp     L234,eax
 5b08  0f 8e aa 00 00 00                 jle     L398
 5b0e  39 05 9d 18 00 00                 cmp     L229,eax
 5b14  0f 8f 56 02 00 00                 jg      L401
 5b1a  a1 d1 02 00 00                    mov     eax,L99
 5b1f  2b 05 9d 18 00 00                 sub     eax,L229
 5b25  a3 4d 4d 00 00                    mov     L324,eax
 5b2a  db 05 4d 4d 00 00                 fild    dword ptr L324
 5b30  a1 b1 18 00 00                    mov     eax,L234
 5b35  2b 05 9d 18 00 00                 sub     eax,L229
 5b3b  a3 4d 4d 00 00                    mov     L324,eax
 5b40  da 35 4d 4d 00 00                 fidiv   dword ptr L324
 5b46  a1 d1 02 00 00                    mov     eax,L99
 5b4b  a3 b1 18 00 00                    mov     L234,eax
 5b50  db 05 ad 18 00 00                 fild    dword ptr L233
 5b56  da 25 99 18 00 00                 fisub   dword ptr L228
 5b5c  d8 c9                             fmul    st,st(1)
 5b5e  da 05 99 18 00 00                 fiadd   dword ptr L228
 5b64  db 1d ad 18 00 00                 fistp   dword ptr L233
 5b6a  d9 05 b5 18 00 00                 fld     dword ptr L235
 5b70  d8 25 a1 18 00 00                 fsub    dword ptr L230
 5b76  d8 c9                             fmul    st,st(1)
 5b78  d8 05 a1 18 00 00                 fadd    dword ptr L230
 5b7e  d9 1d b5 18 00 00                 fstp    dword ptr L235
 5b84  d9 05 b9 18 00 00                 fld     dword ptr L236
 5b8a  d8 25 a5 18 00 00                 fsub    dword ptr L231
 5b90  d8 c9                             fmul    st,st(1)
 5b92  d8 05 a5 18 00 00                 fadd    dword ptr L231
 5b98  d9 1d b9 18 00 00                 fstp    dword ptr L236
 5b9e  d9 05 bd 18 00 00                 fld     dword ptr L237
 5ba4  d8 25 a9 18 00 00                 fsub    dword ptr L232
 5baa  de c9                             fmulp   st(1),st
 5bac  d8 05 a9 18 00 00                 fadd    dword ptr L232
 5bb2  d9 1d bd 18 00 00                 fstp    dword ptr L237
 5bb8  a1 cd 02 00 00    L398            mov     eax,L98
 5bbd  39 05 b1 18 00 00                 cmp     L234,eax
 5bc3  0f 8d aa 00 00 00                 jge     L399
 5bc9  39 05 9d 18 00 00                 cmp     L229,eax
 5bcf  0f 8c 9b 01 00 00                 jl      L401
 5bd5  a1 cd 02 00 00                    mov     eax,L98
 5bda  2b 05 b1 18 00 00                 sub     eax,L234
 5be0  a3 4d 4d 00 00                    mov     L324,eax
 5be5  db 05 4d 4d 00 00                 fild    dword ptr L324
 5beb  a1 9d 18 00 00                    mov     eax,L229
 5bf0  2b 05 b1 18 00 00                 sub     eax,L234
 5bf6  a3 4d 4d 00 00                    mov     L324,eax
 5bfb  da 35 4d 4d 00 00                 fidiv   dword ptr L324
 5c01  a1 cd 02 00 00                    mov     eax,L98
 5c06  a3 b1 18 00 00                    mov     L234,eax
 5c0b  db 05 99 18 00 00                 fild    dword ptr L228
 5c11  da 25 ad 18 00 00                 fisub   dword ptr L233
 5c17  d8 c9                             fmul    st,st(1)
 5c19  da 05 ad 18 00 00                 fiadd   dword ptr L233
 5c1f  db 1d ad 18 00 00                 fistp   dword ptr L233
 5c25  d9 05 a1 18 00 00                 fld     dword ptr L230
 5c2b  d8 25 b5 18 00 00                 fsub    dword ptr L235
 5c31  d8 c9                             fmul    st,st(1)
 5c33  d8 05 b5 18 00 00                 fadd    dword ptr L235
 5c39  d9 1d b5 18 00 00                 fstp    dword ptr L235
 5c3f  d9 05 a5 18 00 00                 fld     dword ptr L231
 5c45  d8 25 b9 18 00 00                 fsub    dword ptr L236
 5c4b  d8 c9                             fmul    st,st(1)
 5c4d  d8 05 b9 18 00 00                 fadd    dword ptr L236
 5c53  d9 1d b9 18 00 00                 fstp    dword ptr L236
 5c59  d9 05 a9 18 00 00                 fld     dword ptr L232
 5c5f  d8 25 bd 18 00 00                 fsub    dword ptr L237
 5c65  de c9                             fmulp   st(1),st
 5c67  d8 05 bd 18 00 00                 fadd    dword ptr L237
 5c6d  d9 1d bd 18 00 00                 fstp    dword ptr L237
 5c73  a1 d1 02 00 00    L399            mov     eax,L99
 5c78  39 05 9d 18 00 00                 cmp     L229,eax
 5c7e  0f 8e aa 00 00 00                 jle     L400
 5c84  39 05 b1 18 00 00                 cmp     L234,eax
 5c8a  0f 8f e0 00 00 00                 jg      L401
 5c90  a1 d1 02 00 00                    mov     eax,L99
 5c95  2b 05 b1 18 00 00                 sub     eax,L234
 5c9b  a3 4d 4d 00 00                    mov     L324,eax
 5ca0  db 05 4d 4d 00 00                 fild    dword ptr L324
 5ca6  a1 9d 18 00 00                    mov     eax,L229
 5cab  2b 05 b1 18 00 00                 sub     eax,L234
 5cb1  a3 4d 4d 00 00                    mov     L324,eax
 5cb6  da 35 4d 4d 00 00                 fidiv   dword ptr L324
 5cbc  a1 d1 02 00 00                    mov     eax,L99
 5cc1  a3 9d 18 00 00                    mov     L229,eax
 5cc6  db 05 99 18 00 00                 fild    dword ptr L228
 5ccc  da 25 ad 18 00 00                 fisub   dword ptr L233
 5cd2  d8 c9                             fmul    st,st(1)
 5cd4  da 05 ad 18 00 00                 fiadd   dword ptr L233
 5cda  db 1d 99 18 00 00                 fistp   dword ptr L228
 5ce0  d9 05 a1 18 00 00                 fld     dword ptr L230
 5ce6  d8 25 b5 18 00 00                 fsub    dword ptr L235
 5cec  d8 c9                             fmul    st,st(1)
 5cee  d8 05 b5 18 00 00                 fadd    dword ptr L235
 5cf4  d9 1d a1 18 00 00                 fstp    dword ptr L230
 5cfa  d9 05 a5 18 00 00                 fld     dword ptr L231
 5d00  d8 25 b9 18 00 00                 fsub    dword ptr L236
 5d06  d8 c9                             fmul    st,st(1)
 5d08  d8 05 b9 18 00 00                 fadd    dword ptr L236
 5d0e  d9 1d a5 18 00 00                 fstp    dword ptr L231
 5d14  d9 05 a9 18 00 00                 fld     dword ptr L232
 5d1a  d8 25 bd 18 00 00                 fsub    dword ptr L237
 5d20  de c9                             fmulp   st(1),st
 5d22  d8 05 bd 18 00 00                 fadd    dword ptr L237
 5d28  d9 1d a9 18 00 00                 fstp    dword ptr L232
 5d2e  a1 99 18 00 00    L400            mov     eax,L228
 5d33  ab                                stosd   
 5d34  a1 9d 18 00 00                    mov     eax,L229
 5d39  ab                                stosd   
 5d3a  a1 a1 18 00 00                    mov     eax,L230
 5d3f  ab                                stosd   
 5d40  a1 a5 18 00 00                    mov     eax,L231
 5d45  ab                                stosd   
 5d46  a1 a9 18 00 00                    mov     eax,L232
 5d4b  ab                                stosd   
 5d4c  a1 ad 18 00 00                    mov     eax,L233
 5d51  ab                                stosd   
 5d52  a1 b1 18 00 00                    mov     eax,L234
 5d57  ab                                stosd   
 5d58  a1 b5 18 00 00                    mov     eax,L235
 5d5d  ab                                stosd   
 5d5e  a1 b9 18 00 00                    mov     eax,L236
 5d63  ab                                stosd   
 5d64  a1 bd 18 00 00                    mov     eax,L237
 5d69  ab                                stosd   
 5d6a  ff 05 75 18 00 00                 inc     dword ptr L219
 5d70  83 3d 79 18 00 00 
       02                L401            cmp     dword ptr L220,00000002H
 5d77  75 73                             jne     L402
 5d79  c7 05 79 18 00 00 
       00 00 00 00                       mov     dword ptr L220,00000000H
 5d83  a1 c1 18 00 00                    mov     eax,L238
 5d88  a3 99 18 00 00                    mov     L228,eax
 5d8d  a1 c5 18 00 00                    mov     eax,L239
 5d92  a3 9d 18 00 00                    mov     L229,eax
 5d97  a1 cd 18 00 00                    mov     eax,L241
 5d9c  a3 a1 18 00 00                    mov     L230,eax
 5da1  a1 c9 18 00 00                    mov     eax,L240
 5da6  a3 a5 18 00 00                    mov     L231,eax
 5dab  a1 d1 18 00 00                    mov     eax,L242
 5db0  a3 a9 18 00 00                    mov     L232,eax
 5db5  a1 d5 18 00 00                    mov     eax,L243
 5dba  a3 ad 18 00 00                    mov     L233,eax
 5dbf  a1 d9 18 00 00                    mov     eax,L244
 5dc4  a3 b1 18 00 00                    mov     L234,eax
 5dc9  a1 e1 18 00 00                    mov     eax,L246
 5dce  a3 b5 18 00 00                    mov     L235,eax
 5dd3  a1 dd 18 00 00                    mov     eax,L245
 5dd8  a3 b9 18 00 00                    mov     L236,eax
 5ddd  a1 e5 18 00 00                    mov     eax,L247
 5de2  a3 bd 18 00 00                    mov     L237,eax
 5de7  e9 de f8 ff ff                    jmp     L392
 5dec  83 3d 7d 18 00 00 
       02                L402            cmp     dword ptr L221,00000002H
 5df3  75 73                             jne     L403
 5df5  c7 05 7d 18 00 00 
       00 00 00 00                       mov     dword ptr L221,00000000H
 5dff  a1 05 19 00 00                    mov     eax,L255
 5e04  a3 99 18 00 00                    mov     L228,eax
 5e09  a1 09 19 00 00                    mov     eax,L256
 5e0e  a3 9d 18 00 00                    mov     L229,eax
 5e13  a1 11 19 00 00                    mov     eax,L258
 5e18  a3 a1 18 00 00                    mov     L230,eax
 5e1d  a1 0d 19 00 00                    mov     eax,L257
 5e22  a3 a5 18 00 00                    mov     L231,eax
 5e27  a1 15 19 00 00                    mov     eax,L259
 5e2c  a3 a9 18 00 00                    mov     L232,eax
 5e31  a1 f1 18 00 00                    mov     eax,L250
 5e36  a3 ad 18 00 00                    mov     L233,eax
 5e3b  a1 f5 18 00 00                    mov     eax,L251
 5e40  a3 b1 18 00 00                    mov     L234,eax
 5e45  a1 fd 18 00 00                    mov     eax,L253
 5e4a  a3 b5 18 00 00                    mov     L235,eax
 5e4f  a1 f9 18 00 00                    mov     eax,L252
 5e54  a3 b9 18 00 00                    mov     L236,eax
 5e59  a1 01 19 00 00                    mov     eax,L254
 5e5e  a3 bd 18 00 00                    mov     L237,eax
 5e63  e9 da fb ff ff                    jmp     L396
 5e68  83 3d 81 18 00 00 
       02                L403            cmp     dword ptr L222,00000002H
 5e6f  75 73                             jne     L404
 5e71  c7 05 81 18 00 00 
       00 00 00 00                       mov     dword ptr L222,00000000H
 5e7b  a1 35 19 00 00                    mov     eax,L267
 5e80  a3 99 18 00 00                    mov     L228,eax
 5e85  a1 39 19 00 00                    mov     eax,L268
 5e8a  a3 9d 18 00 00                    mov     L229,eax
 5e8f  a1 41 19 00 00                    mov     eax,L270
 5e94  a3 a1 18 00 00                    mov     L230,eax
 5e99  a1 3d 19 00 00                    mov     eax,L269
 5e9e  a3 a5 18 00 00                    mov     L231,eax
 5ea3  a1 45 19 00 00                    mov     eax,L271
 5ea8  a3 a9 18 00 00                    mov     L232,eax
 5ead  a1 21 19 00 00                    mov     eax,L262
 5eb2  a3 ad 18 00 00                    mov     L233,eax
 5eb7  a1 25 19 00 00                    mov     eax,L263
 5ebc  a3 b1 18 00 00                    mov     L234,eax
 5ec1  a1 2d 19 00 00                    mov     eax,L265
 5ec6  a3 b5 18 00 00                    mov     L235,eax
 5ecb  a1 29 19 00 00                    mov     eax,L264
 5ed0  a3 b9 18 00 00                    mov     L236,eax
 5ed5  a1 31 19 00 00                    mov     eax,L266
 5eda  a3 bd 18 00 00                    mov     L237,eax
 5edf  e9 5e fb ff ff                    jmp     L396
 5ee4  83 c6 04          L404            add     esi,00000004H
 5ee7  49                                dec     ecx
 5ee8  0f 85 fe f4 ff ff                 jne     L372
 5eee  c3                                ret     
 5eef  be 85 17 00 00    L405            mov     esi,offset L218
 5ef4  8d 7e 14                          lea     edi,+14H[esi]
 5ef7  c7 05 45 4d 00 00 
       00 01 00 00                       mov     dword ptr L322,00000100H
 5f01  c7 05 49 4d 00 00 
       00 00 00 00                       mov     dword ptr L323,00000000H
 5f0b  56                L406            push    esi
 5f0c  57                                push    edi
 5f0d  8b 46 04                          mov     eax,+4H[esi]
 5f10  8b 5f 04                          mov     ebx,+4H[edi]
 5f13  ba 45 25 00 00                    mov     edx,offset L314
 5f18  3b c3                             cmp     eax,ebx
 5f1a  0f 84 d4 00 00 00                 je      L415
 5f20  7c 11                             jl      L407
 5f22  8b c8                             mov     ecx,eax
 5f24  8b c3                             mov     eax,ebx
 5f26  8b d9                             mov     ebx,ecx
 5f28  8b ce                             mov     ecx,esi
 5f2a  8b f7                             mov     esi,edi
 5f2c  8b f9                             mov     edi,ecx
 5f2e  ba 45 39 00 00                    mov     edx,offset L318
 5f33  39 05 45 4d 00 00 L407            cmp     L322,eax
 5f39  7e 05                             jle     L408
 5f3b  a3 45 4d 00 00                    mov     L322,eax
 5f40  39 1d 49 4d 00 00 L408            cmp     L323,ebx
 5f46  7d 06                             jge     L409
 5f48  89 1d 49 4d 00 00                 mov     L323,ebx
 5f4e  2b d8             L409            sub     ebx,eax
 5f50  89 1d 4d 4d 00 00                 mov     L324,ebx
 5f56  c1 e0 04                          shl     eax,04H
 5f59  8d 2c 02                          lea     ebp,[edx+eax]
 5f5c  8b 0e                             mov     ecx,[esi]
 5f5e  c1 e1 10                          shl     ecx,10H
 5f61  8b 07                             mov     eax,[edi]
 5f63  c1 e0 10                          shl     eax,10H
 5f66  2b c1                             sub     eax,ecx
 5f68  99                                cdq     
 5f69  f7 fb                             idiv    ebx
 5f6b  a3 d9 5f 00 00                    mov     L411,eax
 5f70  d9 e8                             fld1    
 5f72  da 35 4d 4d 00 00                 fidiv   dword ptr L324
 5f78  d9 46 08                          fld     dword ptr +8H[esi]
 5f7b  d9 47 08                          fld     dword ptr +8H[edi]
 5f7e  d8 e1                             fsub    st,st(1)
 5f80  d8 ca                             fmul    st,st(2)
 5f82  db 1d ea 5f 00 00                 fistp   dword ptr L414
 5f88  db 1d a1 18 00 00                 fistp   dword ptr L230
 5f8e  d9 46 0c                          fld     dword ptr +0cH[esi]
 5f91  d9 47 0c                          fld     dword ptr +0cH[edi]
 5f94  d8 e1                             fsub    st,st(1)
 5f96  d8 ca                             fmul    st,st(2)
 5f98  db 1d df 5f 00 00                 fistp   dword ptr L412
 5f9e  db 1d a5 18 00 00                 fistp   dword ptr L231
 5fa4  d9 46 10                          fld     dword ptr +10H[esi]
 5fa7  d9 47 10                          fld     dword ptr +10H[edi]
 5faa  d8 e1                             fsub    st,st(1)
 5fac  de ca                             fmulp   st(2),st
 5fae  db 1d a9 18 00 00                 fistp   dword ptr L232
 5fb4  db 1d e5 5f 00 00                 fistp   dword ptr L413
 5fba  8b 35 a5 18 00 00                 mov     esi,L231
 5fc0  8b 3d a9 18 00 00                 mov     edi,L232
 5fc6  a1 a1 18 00 00                    mov     eax,L230
 5fcb  89 4d 00          L410            mov     +0H[ebp],ecx
 5fce  89 75 04                          mov     +4H[ebp],esi
 5fd1  89 7d 08                          mov     +8H[ebp],edi
 5fd4  89 45 0c                          mov     +0cH[ebp],eax
 5fd7  81 c1 11 11 11 11                 add     ecx,11111111H
 5fdd  81 c6 11 11 11 11                 add     esi,11111111H
 5fe3  81 c7 11 11 11 11                 add     edi,11111111H
 5fe9  05 11 11 11 11                    add     eax,11111111H
 5fee  83 c5 10                          add     ebp,00000010H
 5ff1  4b                                dec     ebx
 5ff2  75 d7                             jne     L410
 5ff4  5f                L415            pop     edi
 5ff5  5e                                pop     esi
 5ff6  83 c6 28                          add     esi,00000028H
 5ff9  83 c7 28                          add     edi,00000028H
 5ffc  ff 0d 75 18 00 00                 dec     dword ptr L219
 6002  0f 85 03 ff ff ff                 jne     L406
 6008  8b 35 45 4d 00 00                 mov     esi,L322
 600e  29 35 49 4d 00 00                 sub     L323,esi
 6014  0f 8e dc 00 00 00                 jle     L423
 601a  89 35 7d 4d 00 00                 mov     L336,esi
 6020  c1 e6 04                          shl     esi,04H
 6023  8b be 45 25 00 00 L416            mov     edi,L314[esi]
 6029  8b 8e 45 39 00 00                 mov     ecx,L318[esi]
 602f  c1 ff 10                          sar     edi,10H
 6032  c1 f9 10                          sar     ecx,10H
 6035  2b cf                             sub     ecx,edi
 6037  0f 8e a4 00 00 00                 jle     L422
 603d  03 ff                             add     edi,edi
 603f  8b 2d 7d 4d 00 00                 mov     ebp,L336
 6045  8b 1d 2d 02 00 00                 mov     ebx,L49
 604b  03 3c ab                          add     edi,[ebx+ebp*4]
 604e  8b ef                             mov     ebp,edi
 6050  2b 2d 31 02 00 00                 sub     ebp,L50
 6056  03 ed                             add     ebp,ebp
 6058  03 2d 23 02 00 00                 add     ebp,L43
 605e  8b 86 49 39 00 00                 mov     eax,L319[esi]
 6064  2b 86 49 25 00 00                 sub     eax,L315[esi]
 606a  99                                cdq     
 606b  f7 f9                             idiv    ecx
 606d  66 a3 d1 60 00 00                 mov     L420,ax
 6073  8b 86 4d 39 00 00                 mov     eax,L320[esi]
 6079  2b 86 4d 25 00 00                 sub     eax,L316[esi]
 607f  99                                cdq     
 6080  f7 f9                             idiv    ecx
 6082  66 a3 cf 60 00 00                 mov     L419,ax
 6088  8b 86 51 39 00 00                 mov     eax,L321[esi]
 608e  2b 86 51 25 00 00                 sub     eax,L317[esi]
 6094  99                                cdq     
 6095  f7 f9                             idiv    ecx
 6097  a3 d4 60 00 00                    mov     L421,eax
 609c  8b 96 49 25 00 00                 mov     edx,L315[esi]
 60a2  c1 e2 10                          shl     edx,10H
 60a5  66 8b 96 4d 25 00 
       00                                mov     dx,L316[esi]
 60ac  8b 86 51 25 00 00                 mov     eax,L317[esi]
 60b2  39 45 00          L417            cmp     +0H[ebp],eax
 60b5  7c 16                             jl      L418
 60b7  89 45 00                          mov     +0H[ebp],eax
 60ba  0f b6 de                          movzx   ebx,dh
 60bd  0f a4 d3 08                       shld    ebx,edx,08H
 60c1  66 64 8b 1c 5d 00 
       00 00 00                          mov     bx,fs:+0H[ebx*2]
 60ca  66 89 1f                          mov     [edi],bx
 60cd  81 c2 11 11 11 11 L418            add     edx,11111111H
 60d3  05 11 11 11 11                    add     eax,11111111H
 60d8  83 c7 02                          add     edi,00000002H
 60db  83 c5 04                          add     ebp,00000004H
 60de  49                                dec     ecx
 60df  75 d1                             jne     L417
 60e1  ff 05 7d 4d 00 00 L422            inc     dword ptr L336
 60e7  83 c6 10                          add     esi,00000010H
 60ea  ff 0d 49 4d 00 00                 dec     dword ptr L323
 60f0  0f 85 2d ff ff ff                 jne     L416
 60f6  c3                L423            ret     
 60f7  be 85 17 00 00    L424            mov     esi,offset L218
 60fc  8d 7e 14                          lea     edi,+14H[esi]
 60ff  c7 05 45 4d 00 00 
       00 01 00 00                       mov     dword ptr L322,00000100H
 6109  c7 05 49 4d 00 00 
       00 00 00 00                       mov     dword ptr L323,00000000H
 6113  56                L425            push    esi
 6114  57                                push    edi
 6115  8b 46 04                          mov     eax,+4H[esi]
 6118  8b 5f 04                          mov     ebx,+4H[edi]
 611b  ba 45 25 00 00                    mov     edx,offset L314
 6120  3b c3                             cmp     eax,ebx
 6122  0f 84 d4 00 00 00                 je      L434
 6128  7c 11                             jl      L426
 612a  8b c8                             mov     ecx,eax
 612c  8b c3                             mov     eax,ebx
 612e  8b d9                             mov     ebx,ecx
 6130  8b ce                             mov     ecx,esi
 6132  8b f7                             mov     esi,edi
 6134  8b f9                             mov     edi,ecx
 6136  ba 45 39 00 00                    mov     edx,offset L318
 613b  39 05 45 4d 00 00 L426            cmp     L322,eax
 6141  7e 05                             jle     L427
 6143  a3 45 4d 00 00                    mov     L322,eax
 6148  39 1d 49 4d 00 00 L427            cmp     L323,ebx
 614e  7d 06                             jge     L428
 6150  89 1d 49 4d 00 00                 mov     L323,ebx
 6156  2b d8             L428            sub     ebx,eax
 6158  89 1d 4d 4d 00 00                 mov     L324,ebx
 615e  c1 e0 04                          shl     eax,04H
 6161  8d 2c 02                          lea     ebp,[edx+eax]
 6164  8b 0e                             mov     ecx,[esi]
 6166  c1 e1 10                          shl     ecx,10H
 6169  8b 07                             mov     eax,[edi]
 616b  c1 e0 10                          shl     eax,10H
 616e  2b c1                             sub     eax,ecx
 6170  99                                cdq     
 6171  f7 fb                             idiv    ebx
 6173  a3 e1 61 00 00                    mov     L430,eax
 6178  d9 e8                             fld1    
 617a  da 35 4d 4d 00 00                 fidiv   dword ptr L324
 6180  d9 46 08                          fld     dword ptr +8H[esi]
 6183  d9 47 08                          fld     dword ptr +8H[edi]
 6186  d8 e1                             fsub    st,st(1)
 6188  d8 ca                             fmul    st,st(2)
 618a  db 1d f2 61 00 00                 fistp   dword ptr L433
 6190  db 1d a1 18 00 00                 fistp   dword ptr L230
 6196  d9 46 0c                          fld     dword ptr +0cH[esi]
 6199  d9 47 0c                          fld     dword ptr +0cH[edi]
 619c  d8 e1                             fsub    st,st(1)
 619e  d8 ca                             fmul    st,st(2)
 61a0  db 1d e7 61 00 00                 fistp   dword ptr L431
 61a6  db 1d a5 18 00 00                 fistp   dword ptr L231
 61ac  d9 46 10                          fld     dword ptr +10H[esi]
 61af  d9 47 10                          fld     dword ptr +10H[edi]
 61b2  d8 e1                             fsub    st,st(1)
 61b4  de ca                             fmulp   st(2),st
 61b6  db 1d a9 18 00 00                 fistp   dword ptr L232
 61bc  db 1d ed 61 00 00                 fistp   dword ptr L432
 61c2  8b 35 a5 18 00 00                 mov     esi,L231
 61c8  8b 3d a9 18 00 00                 mov     edi,L232
 61ce  a1 a1 18 00 00                    mov     eax,L230
 61d3  89 4d 00          L429            mov     +0H[ebp],ecx
 61d6  89 75 04                          mov     +4H[ebp],esi
 61d9  89 7d 08                          mov     +8H[ebp],edi
 61dc  89 45 0c                          mov     +0cH[ebp],eax
 61df  81 c1 11 11 11 11                 add     ecx,11111111H
 61e5  81 c6 11 11 11 11                 add     esi,11111111H
 61eb  81 c7 11 11 11 11                 add     edi,11111111H
 61f1  05 11 11 11 11                    add     eax,11111111H
 61f6  83 c5 10                          add     ebp,00000010H
 61f9  4b                                dec     ebx
 61fa  75 d7                             jne     L429
 61fc  5f                L434            pop     edi
 61fd  5e                                pop     esi
 61fe  83 c6 28                          add     esi,00000028H
 6201  83 c7 28                          add     edi,00000028H
 6204  ff 0d 75 18 00 00                 dec     dword ptr L219
 620a  0f 85 03 ff ff ff                 jne     L425
 6210  8b 35 45 4d 00 00                 mov     esi,L322
 6216  29 35 49 4d 00 00                 sub     L323,esi
 621c  0f 8e 66 01 00 00                 jle     L448
 6222  89 35 7d 4d 00 00                 mov     L336,esi
 6228  c1 e6 04                          shl     esi,04H
 622b  8b be 45 25 00 00 L435            mov     edi,L314[esi]
 6231  8b 8e 45 39 00 00                 mov     ecx,L318[esi]
 6237  c1 ff 10                          sar     edi,10H
 623a  c1 f9 10                          sar     ecx,10H
 623d  2b cf                             sub     ecx,edi
 623f  0f 8e 2e 01 00 00                 jle     L447
 6245  03 ff                             add     edi,edi
 6247  8b 2d 7d 4d 00 00                 mov     ebp,L336
 624d  8b 1d 2d 02 00 00                 mov     ebx,L49
 6253  03 3c ab                          add     edi,[ebx+ebp*4]
 6256  8b ef                             mov     ebp,edi
 6258  2b 2d 31 02 00 00                 sub     ebp,L50
 625e  03 ed                             add     ebp,ebp
 6260  03 2d 23 02 00 00                 add     ebp,L43
 6266  8b 86 49 39 00 00                 mov     eax,L319[esi]
 626c  2b 86 49 25 00 00                 sub     eax,L315[esi]
 6272  99                                cdq     
 6273  f7 f9                             idiv    ecx
 6275  66 a3 5f 63 00 00                 mov     L445,ax
 627b  8b 86 4d 39 00 00                 mov     eax,L320[esi]
 6281  2b 86 4d 25 00 00                 sub     eax,L316[esi]
 6287  99                                cdq     
 6288  f7 f9                             idiv    ecx
 628a  66 a3 5d 63 00 00                 mov     L444,ax
 6290  8b 86 51 39 00 00                 mov     eax,L321[esi]
 6296  2b 86 51 25 00 00                 sub     eax,L317[esi]
 629c  99                                cdq     
 629d  f7 f9                             idiv    ecx
 629f  a3 62 63 00 00                    mov     L446,eax
 62a4  8b 96 49 25 00 00                 mov     edx,L315[esi]
 62aa  c1 e2 10                          shl     edx,10H
 62ad  66 8b 96 4d 25 00 
       00                                mov     dx,L316[esi]
 62b4  8b 86 51 25 00 00                 mov     eax,L317[esi]
 62ba  39 45 00          L436            cmp     +0H[ebp],eax
 62bd  0f 8c 98 00 00 00                 jl      L443
 62c3  89 45 00                          mov     +0H[ebp],eax
 62c6  50                                push    eax
 62c7  53                                push    ebx
 62c8  51                                push    ecx
 62c9  52                                push    edx
 62ca  55                                push    ebp
 62cb  0f b6 de                          movzx   ebx,dh
 62ce  0f a4 d3 08                       shld    ebx,edx,08H
 62d2  66 64 8b 04 5d 00 
       00 00 00                          mov     ax,fs:+0H[ebx*2]
 62db  66 8b e8                          mov     bp,ax
 62de  66 8b d8                          mov     bx,ax
 62e1  83 e0 1f                          and     eax,0000001fH
 62e4  81 e3 e0 07 00 00                 and     ebx,000007e0H
 62ea  81 e5 00 f8 00 00                 and     ebp,0000f800H
 62f0  83 c0 08                          add     eax,00000008H
 62f3  83 c3 08                          add     ebx,00000008H
 62f6  83 c5 08                          add     ebp,00000008H
 62f9  0b c0                             or      eax,eax
 62fb  79 02                             jns     L437
 62fd  33 c0                             xor     eax,eax
 62ff  0b db             L437            or      ebx,ebx
 6301  79 02                             jns     L438
 6303  33 db                             xor     ebx,ebx
 6305  0b ed             L438            or      ebp,ebp
 6307  79 02                             jns     L439
 6309  33 ed                             xor     ebp,ebp
 630b  66 8b 17          L439            mov     dx,[edi]
 630e  66 8b ca                          mov     cx,dx
 6311  83 e1 1f                          and     ecx,0000001fH
 6314  03 c1                             add     eax,ecx
 6316  66 8b ca                          mov     cx,dx
 6319  81 e1 e0 07 00 00                 and     ecx,000007e0H
 631f  03 d9                             add     ebx,ecx
 6321  81 e2 00 f8 00 00                 and     edx,0000f800H
 6327  03 ea                             add     ebp,edx
 6329  83 f8 1f                          cmp     eax,0000001fH
 632c  7c 05                             jl      L440
 632e  b8 1f 00 00 00                    mov     eax,0000001fH
 6333  81 fb c0 07 00 00 L440            cmp     ebx,000007c0H
 6339  7c 05                             jl      L441
 633b  bb c0 07 00 00                    mov     ebx,000007c0H
 6340  81 fd 00 f8 00 00 L441            cmp     ebp,0000f800H
 6346  7c 05                             jl      L442
 6348  bd 00 f8 00 00                    mov     ebp,0000f800H
 634d  66 0b c3          L442            or      ax,bx
 6350  66 0b c5                          or      ax,bp
 6353  66 89 07                          mov     [edi],ax
 6356  5d                                pop     ebp
 6357  5a                                pop     edx
 6358  59                                pop     ecx
 6359  5b                                pop     ebx
 635a  58                                pop     eax
 635b  81 c2 11 11 11 11 L443            add     edx,11111111H
 6361  05 11 11 11 11                    add     eax,11111111H
 6366  83 c7 02                          add     edi,00000002H
 6369  83 c5 04                          add     ebp,00000004H
 636c  49                                dec     ecx
 636d  0f 85 47 ff ff ff                 jne     L436
 6373  ff 05 7d 4d 00 00 L447            inc     dword ptr L336
 6379  83 c6 10                          add     esi,00000010H
 637c  ff 0d 49 4d 00 00                 dec     dword ptr L323
 6382  0f 85 a3 fe ff ff                 jne     L435
 6388  c3                L448            ret     
 6389  a1 41 02 00 00    L449            mov     eax,L55
 638e  a3 37 15 00 00                    mov     L183,eax
 6393  a3 3e 15 00 00                    mov     L184,eax
 6398  a3 53 15 00 00                    mov     L187,eax
 639d  a3 6a 15 00 00                    mov     L190,eax
 63a2  a3 71 15 00 00                    mov     L191,eax
 63a7  a3 93 19 00 00                    mov     L278,eax
 63ac  a3 d6 19 00 00                    mov     L283,eax
 63b1  a3 f4 53 00 00                    mov     L373,eax
 63b6  a3 31 54 00 00                    mov     L376,eax
 63bb  83 c0 04                          add     eax,00000004H
 63be  a3 20 15 00 00                    mov     L180,eax
 63c3  a3 27 15 00 00                    mov     L181,eax
 63c8  a3 5c 15 00 00                    mov     L188,eax
 63cd  a3 63 15 00 00                    mov     L189,eax
 63d2  a3 78 15 00 00                    mov     L192,eax
 63d7  a3 9f 19 00 00                    mov     L279,eax
 63dc  a3 e2 19 00 00                    mov     L284,eax
 63e1  a3 00 54 00 00                    mov     L374,eax
 63e6  a3 3d 54 00 00                    mov     L377,eax
 63eb  83 c0 04                          add     eax,00000004H
 63ee  a3 19 15 00 00                    mov     L179,eax
 63f3  a3 2e 15 00 00                    mov     L182,eax
 63f8  a3 45 15 00 00                    mov     L185,eax
 63fd  a3 4c 15 00 00                    mov     L186,eax
 6402  a3 81 15 00 00                    mov     L193,eax
 6407  a3 99 15 00 00                    mov     L194,eax
 640c  a3 ab 15 00 00                    mov     L195,eax
 6411  a3 c5 15 00 00                    mov     L197,eax
 6416  a3 ab 19 00 00                    mov     L280,eax
 641b  a3 ee 19 00 00                    mov     L285,eax
 6420  a3 0c 54 00 00                    mov     L375,eax
 6425  a3 49 54 00 00                    mov     L378,eax
 642a  a1 b1 02 00 00                    mov     eax,L91
 642f  a3 be 19 00 00                    mov     L281,eax
 6434  a3 01 1a 00 00                    mov     L286,eax
 6439  83 c0 04                          add     eax,00000004H
 643c  a3 ca 19 00 00                    mov     L282,eax
 6441  a3 0d 1a 00 00                    mov     L287,eax
 6446  a1 51 02 00 00                    mov     eax,L60
 644b  a3 1d 1b 00 00                    mov     L290,eax
 6450  a3 58 1c 00 00                    mov     L294,eax
 6455  a3 9f 1c 00 00                    mov     L297,eax
 645a  a3 e1 1c 00 00                    mov     L299,eax
 645f  a3 72 55 00 00                    mov     L381,eax
 6464  a3 83 56 00 00                    mov     L385,eax
 6469  a3 9d 56 00 00                    mov     L388,eax
 646e  a3 b5 56 00 00                    mov     L390,eax
 6473  83 c0 04                          add     eax,00000004H
 6476  a3 29 1b 00 00                    mov     L291,eax
 647b  a3 64 1c 00 00                    mov     L295,eax
 6480  a3 ab 1c 00 00                    mov     L298,eax
 6485  a3 ed 1c 00 00                    mov     L300,eax
 648a  a3 7e 55 00 00                    mov     L382,eax
 648f  a3 8f 56 00 00                    mov     L386,eax
 6494  a3 a9 56 00 00                    mov     L389,eax
 6499  a3 c1 56 00 00                    mov     L391,eax
 649e  d9 05 85 18 00 00                 fld     dword ptr L223
 64a4  db 15 1c 1a 00 00                 fist    dword ptr L288
 64aa  db 15 2c 1a 00 00                 fist    dword ptr L289
 64b0  db 15 67 1b 00 00                 fist    dword ptr L293
 64b6  db 15 71 54 00 00                 fist    dword ptr L379
 64bc  db 15 81 54 00 00                 fist    dword ptr L380
 64c2  db 15 92 55 00 00                 fist    dword ptr L384
 64c8  db 1d 3e 16 00 00                 fistp   dword ptr L202
 64ce  a1 a5 02 00 00                    mov     eax,L88
 64d3  83 c0 08                          add     eax,00000008H
 64d6  a3 6a 17 00 00                    mov     L216,eax
 64db  83 c0 04                          add     eax,00000004H
 64de  a3 70 17 00 00                    mov     L217,eax
 64e3  a1 39 02 00 00                    mov     eax,L52
 64e8  a3 90 16 00 00                    mov     L206,eax
 64ed  a3 cb 16 00 00                    mov     L211,eax
 64f2  a3 fe 16 00 00                    mov     L212,eax
 64f7  a1 61 02 00 00                    mov     eax,L65
 64fc  a3 d0 67 00 00                    mov     L475,eax
 6501  c3                                ret     
 6502  00 00             L450            add     [eax],al
 6504  00 00                             add     [eax],al
 6506  00 00             L451            add     [eax],al
 6508  00 00                             add     [eax],al
 650a  00 00             L452            add     [eax],al
 650c  00 00                             add     [eax],al
 650e  00 00             L453            add     [eax],al
 6510  00 00                             add     [eax],al
 6512  00 00             L454            add     [eax],al
 6514  00 00                             add     [eax],al
 6516  00 00             L455            add     [eax],al
 6518  00 00                             add     [eax],al
 651a  00 00             L456            add     [eax],al
 651c  00 00                             add     [eax],al
 651e  00 00             L457            add     [eax],al
 6520  80 43 00 00                       add     byte ptr +0H[ebx],00H
 6524  70 43                             jo      L466
 6526  00 d0             L459            add     al,dl
 6528  84 47 00                          test    +0H[edi],al
 652b  00 00                             add     [eax],al
 652d  00 00                             add     [eax],al
 652f  00 00                             add     [eax],al
 6531  00 00                             add     [eax],al
 6533  00 00                             add     [eax],al
 6535  00 00                             add     [eax],al
 6537  00 00                             add     [eax],al
 6539  00 8b 35 45 02 00                 add     +24535H[ebx],cl
 653f  00 8b 2d 8f 68 00                 add     +688f2dH[ebx],cl
 6545  00 6b ed                          add     -13H[ebx],ch
 6548  18 0f                             sbb     [edi],cl
 654a  af                                scasd   
 654b  2d b9 02 00 00                    sub     eax,offset L93
 6550  03 2d 5d 02 00 00                 add     ebp,L63
 6556  8b 0d b9 02 00 00                 mov     ecx,L93
 655c  56                L465            push    esi
 655d  55                                push    ebp
 655e  51                                push    ecx
 655f  d9 46 08                          fld     dword ptr +8H[esi]
 6562  db 1d 2a 65 00 00                 fistp   dword ptr L460
 6568  83 3d 2a 65 00 00 
       08                                cmp     dword ptr L460,00000008H
 656f  0f 8e 88 00 00 00                 jle     L467
 6575  d9 e8                             fld1    
 6577  d8 76 08                          fdiv    dword ptr +8H[esi]
 657a  d9 06                             fld     dword ptr [esi]
 657c  d8 0d 89 18 00 00                 fmul    dword ptr L224
 6582  d8 c9                             fmul    st,st(1)
 6584  d8 05 91 18 00 00                 fadd    dword ptr L226
 658a  db 1d 02 65 00 00                 fistp   dword ptr L450
 6590  d9 46 04                          fld     dword ptr +4H[esi]
 6593  d8 0d 8d 18 00 00                 fmul    dword ptr L225
 6599  de c9                             fmulp   st(1),st
 659b  d8 05 95 18 00 00                 fadd    dword ptr L227
 65a1  db 1d 06 65 00 00                 fistp   dword ptr L451
 65a7  d9 05 1e 65 00 00                 fld     dword ptr L457
 65ad  d8 0d 26 65 00 00                 fmul    dword ptr L459
 65b3  d8 76 08                          fdiv    dword ptr +8H[esi]
 65b6  db 1d 0e 65 00 00                 fistp   dword ptr L453
 65bc  d9 05 22 65 00 00                 fld     dword ptr L458
 65c2  d8 0d 26 65 00 00                 fmul    dword ptr L459
 65c8  d8 76 08                          fdiv    dword ptr +8H[esi]
 65cb  db 1d 12 65 00 00                 fistp   dword ptr L454
 65d1  d9 46 08                          fld     dword ptr +8H[esi]
 65d4  db 1d 0a 65 00 00                 fistp   dword ptr L452
 65da  8b 45 0c                          mov     eax,+0cH[ebp]
 65dd  c1 e0 0b                          shl     eax,0bH
 65e0  a3 2e 65 00 00                    mov     L461,eax
 65e5  8b 45 10                          mov     eax,+10H[ebp]
 65e8  c1 e0 06                          shl     eax,06H
 65eb  a3 32 65 00 00                    mov     L462,eax
 65f0  8b 45 14                          mov     eax,+14H[ebp]
 65f3  a3 36 65 00 00                    mov     L463,eax
 65f8  e8 11 00 00 00                    call    L468
 65fd  59                L467            pop     ecx
 65fe  5d                                pop     ebp
 65ff  5e                                pop     esi
 6600  83 c6 0c                          add     esi,0000000cH
 6603  83 c5 18                          add     ebp,00000018H
 6606  49                                dec     ecx
 6607  0f 85 4f ff ff ff                 jne     L465
 660d  c3                                ret     
 660e  83 3d 0e 65 00 00 
       00                L468            cmp     dword ptr L453,00000000H
 6615  0f 84 73 02 00 00                 je      L483
 661b  83 3d 12 65 00 00 
       00                                cmp     dword ptr L454,00000000H
 6622  0f 84 66 02 00 00                 je      L483
 6628  a1 0e 65 00 00                    mov     eax,L453
 662d  d1 e8                             shr     eax,1
 662f  29 05 02 65 00 00                 sub     L450,eax
 6635  a1 12 65 00 00                    mov     eax,L454
 663a  d1 e8                             shr     eax,1
 663c  29 05 06 65 00 00                 sub     L451,eax
 6642  8b 3d 02 65 00 00                 mov     edi,L450
 6648  03 ff                             add     edi,edi
 664a  8b 2d 2d 02 00 00                 mov     ebp,L49
 6650  8b 1d 06 65 00 00                 mov     ebx,L451
 6656  03 7c 9d 00                       add     edi,+0H[ebp+ebx*4]
 665a  8b f7                             mov     esi,edi
 665c  2b 35 31 02 00 00                 sub     esi,L50
 6662  03 f6                             add     esi,esi
 6664  03 35 23 02 00 00                 add     esi,L43
 666a  b8 00 00 01 00                    mov     eax,00010000H
 666f  8b 1d 0e 65 00 00                 mov     ebx,L453
 6675  99                                cdq     
 6676  f7 fb                             idiv    ebx
 6678  a3 16 65 00 00                    mov     L455,eax
 667d  b8 00 00 01 00                    mov     eax,00010000H
 6682  8b 1d 12 65 00 00                 mov     ebx,L454
 6688  99                                cdq     
 6689  f7 fb                             idiv    ebx
 668b  a3 1a 65 00 00                    mov     L456,eax
 6690  a1 02 65 00 00                    mov     eax,L450
 6695  3b 05 c9 02 00 00                 cmp     eax,L97
 669b  0f 8d ed 01 00 00                 jge     L483
 66a1  03 05 0e 65 00 00                 add     eax,L453
 66a7  3b 05 c5 02 00 00                 cmp     eax,L96
 66ad  0f 8e db 01 00 00                 jle     L483
 66b3  a1 06 65 00 00                    mov     eax,L451
 66b8  3b 05 d1 02 00 00                 cmp     eax,L99
 66be  0f 8d ca 01 00 00                 jge     L483
 66c4  03 05 12 65 00 00                 add     eax,L454
 66ca  3b 05 cd 02 00 00                 cmp     eax,L98
 66d0  0f 8e b8 01 00 00                 jle     L483
 66d6  b8 00 00 00 00                    mov     eax,00000000H
 66db  bb 00 00 00 00                    mov     ebx,00000000H
 66e0  8b 2d c5 02 00 00                 mov     ebp,L96
 66e6  39 2d 02 65 00 00                 cmp     L450,ebp
 66ec  7d 1f                             jge     L469
 66ee  a1 16 65 00 00                    mov     eax,L455
 66f3  8b 1d 02 65 00 00                 mov     ebx,L450
 66f9  f7 db                             neg     ebx
 66fb  f7 eb                             imul    ebx
 66fd  29 1d 0e 65 00 00                 sub     L453,ebx
 6703  c7 05 02 65 00 00 
       00 00 00 00                       mov     dword ptr L450,00000000H
 670d  8b 0d 02 65 00 00 L469            mov     ecx,L450
 6713  03 0d 0e 65 00 00                 add     ecx,L453
 6719  3b 0d c9 02 00 00                 cmp     ecx,L97
 671f  7e 0c                             jle     L470
 6721  2b 0d c9 02 00 00                 sub     ecx,L97
 6727  29 0d 0e 65 00 00                 sub     L453,ecx
 672d  8b 2d cd 02 00 00 L470            mov     ebp,L98
 6733  39 2d 06 65 00 00                 cmp     L451,ebp
 6739  7d 21                             jge     L471
 673b  8b 1d 1a 65 00 00                 mov     ebx,L456
 6741  8b 0d 06 65 00 00                 mov     ecx,L451
 6747  f7 d9                             neg     ecx
 6749  0f af d9                          imul    ebx,ecx
 674c  29 0d 12 65 00 00                 sub     L454,ecx
 6752  c7 05 06 65 00 00 
       00 00 00 00                       mov     dword ptr L451,00000000H
 675c  8b 0d 06 65 00 00 L471            mov     ecx,L451
 6762  03 0d 12 65 00 00                 add     ecx,L454
 6768  3b 0d d1 02 00 00                 cmp     ecx,L99
 676e  7e 0c                             jle     L472
 6770  2b 0d d1 02 00 00                 sub     ecx,L99
 6776  29 0d 12 65 00 00                 sub     L454,ecx
 677c  8b 2d c5 02 00 00 L472            mov     ebp,L96
 6782  39 2d 0e 65 00 00                 cmp     L453,ebp
 6788  0f 8e 00 01 00 00                 jle     L483
 678e  8b 2d cd 02 00 00                 mov     ebp,L98
 6794  39 2d 12 65 00 00                 cmp     L454,ebp
 679a  0f 8e ee 00 00 00                 jle     L483
 67a0  8b 2d 12 65 00 00                 mov     ebp,L454
 67a6  50                L473            push    eax
 67a7  53                                push    ebx
 67a8  55                                push    ebp
 67a9  56                                push    esi
 67aa  57                                push    edi
 67ab  81 e3 00 ff 00 00                 and     ebx,0000ff00H
 67b1  8b 2d 0e 65 00 00                 mov     ebp,L453
 67b7  8b 0d 0a 65 00 00 L474            mov     ecx,L452
 67bd  39 0e                             cmp     [esi],ecx
 67bf  0f 8c 98 00 00 00                 jl      L482
 67c5  50                                push    eax
 67c6  53                                push    ebx
 67c7  51                                push    ecx
 67c8  52                                push    edx
 67c9  55                                push    ebp
 67ca  8a dc                             mov     bl,ah
 67cc  66 8b 04 5d 11 11 
       11 11                             mov     ax,+11111111H[ebx*2]
 67d4  66 8b e8                          mov     bp,ax
 67d7  66 8b d8                          mov     bx,ax
 67da  83 e0 1f                          and     eax,0000001fH
 67dd  81 e3 e0 07 00 00                 and     ebx,000007e0H
 67e3  81 e5 00 f8 00 00                 and     ebp,0000f800H
 67e9  2b 05 36 65 00 00                 sub     eax,L463
 67ef  2b 1d 32 65 00 00                 sub     ebx,L462
 67f5  2b 2d 2e 65 00 00                 sub     ebp,L461
 67fb  0b c0                             or      eax,eax
 67fd  79 02                             jns     L476
 67ff  33 c0                             xor     eax,eax
 6801  0b db             L476            or      ebx,ebx
 6803  79 02                             jns     L477
 6805  33 db                             xor     ebx,ebx
 6807  0b ed             L477            or      ebp,ebp
 6809  79 02                             jns     L478
 680b  33 ed                             xor     ebp,ebp
 680d  66 8b 17          L478            mov     dx,[edi]
 6810  66 8b ca                          mov     cx,dx
 6813  83 e1 1f                          and     ecx,0000001fH
 6816  03 c1                             add     eax,ecx
 6818  66 8b ca                          mov     cx,dx
 681b  81 e1 e0 07 00 00                 and     ecx,000007e0H
 6821  03 d9                             add     ebx,ecx
 6823  81 e2 00 f8 00 00                 and     edx,0000f800H
 6829  03 ea                             add     ebp,edx
 682b  83 f8 1f                          cmp     eax,0000001fH
 682e  7c 05                             jl      L479
 6830  b8 1f 00 00 00                    mov     eax,0000001fH
 6835  81 fb c0 07 00 00 L479            cmp     ebx,000007c0H
 683b  7c 05                             jl      L480
 683d  bb c0 07 00 00                    mov     ebx,000007c0H
 6842  81 fd 00 f8 00 00 L480            cmp     ebp,0000f800H
 6848  7c 05                             jl      L481
 684a  bd 00 f8 00 00                    mov     ebp,0000f800H
 684f  66 0b c3          L481            or      ax,bx
 6852  66 0b c5                          or      ax,bp
 6855  66 89 07                          mov     [edi],ax
 6858  5d                                pop     ebp
 6859  5a                                pop     edx
 685a  59                                pop     ecx
 685b  5b                                pop     ebx
 685c  58                                pop     eax
 685d  03 05 16 65 00 00 L482            add     eax,L455
 6863  83 c6 04                          add     esi,00000004H
 6866  83 c7 02                          add     edi,00000002H
 6869  4d                                dec     ebp
 686a  0f 85 47 ff ff ff                 jne     L474
 6870  5f                                pop     edi
 6871  5e                                pop     esi
 6872  5d                                pop     ebp
 6873  5b                                pop     ebx
 6874  58                                pop     eax
 6875  03 1d 1a 65 00 00                 add     ebx,L456
 687b  81 c6 11 11 11 11                 add     esi,11111111H
 6881  81 c7 11 11 11 11                 add     edi,11111111H
 6887  4d                                dec     ebp
 6888  0f 85 18 ff ff ff                 jne     L473
 688e  c3                L483            ret     
 688f  00 00             L484            add     [eax],al
 6891  00 00                             add     [eax],al
 6893  ff 05 8f 68 00 00 L485            inc     dword ptr L484
 6899  a1 9d 02 00 00                    mov     eax,L86
 689e  3b 05 8f 68 00 00                 cmp     eax,L484
 68a4  7f 0a                             jg      L486
 68a6  c7 05 8f 68 00 00 
       00 00 00 00                       mov     dword ptr L484,00000000H
 68b0  c3                L486            ret     

No disassembly errors

------------------------------------------------------------
